
INZYNIERKA_niewidomy.elf:     file format elf32-avr

Sections:
Idx Name          Size      VMA       LMA       File off  Algn
  0 .text         000036cc  00000000  00000000  00000094  2**1
                  CONTENTS, ALLOC, LOAD, READONLY, CODE
  1 .data         000001b6  00800060  000036cc  00003760  2**0
                  CONTENTS, ALLOC, LOAD, DATA
  2 .bss          00000481  00800216  00800216  00003916  2**0
                  ALLOC

Disassembly of section .text:

00000000 <__vectors>:
       0:	0c 94 5d 00 	jmp	0xba	; 0xba <__ctors_end>
       4:	0c 94 7a 00 	jmp	0xf4	; 0xf4 <__bad_interrupt>
       8:	0c 94 7a 00 	jmp	0xf4	; 0xf4 <__bad_interrupt>
       c:	0c 94 7a 00 	jmp	0xf4	; 0xf4 <__bad_interrupt>
      10:	0c 94 7a 00 	jmp	0xf4	; 0xf4 <__bad_interrupt>
      14:	0c 94 a2 16 	jmp	0x2d44	; 0x2d44 <__vector_5>
      18:	0c 94 7a 00 	jmp	0xf4	; 0xf4 <__bad_interrupt>
      1c:	0c 94 7a 00 	jmp	0xf4	; 0xf4 <__bad_interrupt>
      20:	0c 94 7a 00 	jmp	0xf4	; 0xf4 <__bad_interrupt>
      24:	0c 94 7a 00 	jmp	0xf4	; 0xf4 <__bad_interrupt>
      28:	0c 94 94 00 	jmp	0x128	; 0x128 <__vector_10>
      2c:	0c 94 7a 00 	jmp	0xf4	; 0xf4 <__bad_interrupt>
      30:	0c 94 7a 00 	jmp	0xf4	; 0xf4 <__bad_interrupt>
      34:	0c 94 7a 00 	jmp	0xf4	; 0xf4 <__bad_interrupt>
      38:	0c 94 7a 00 	jmp	0xf4	; 0xf4 <__bad_interrupt>
      3c:	0c 94 7a 00 	jmp	0xf4	; 0xf4 <__bad_interrupt>
      40:	0c 94 7a 00 	jmp	0xf4	; 0xf4 <__bad_interrupt>
      44:	0c 94 7a 00 	jmp	0xf4	; 0xf4 <__bad_interrupt>
      48:	0c 94 7a 00 	jmp	0xf4	; 0xf4 <__bad_interrupt>
      4c:	0c 94 7a 00 	jmp	0xf4	; 0xf4 <__bad_interrupt>
      50:	0c 94 7a 00 	jmp	0xf4	; 0xf4 <__bad_interrupt>
      54:	f7 04       	cpc	r15, r7
      56:	fa 04       	cpc	r15, r10
      58:	fd 04       	cpc	r15, r13
      5a:	00 05       	cpc	r16, r0
      5c:	03 05       	cpc	r16, r3
      5e:	06 05       	cpc	r16, r6
      60:	09 05       	cpc	r16, r9
      62:	0c 05       	cpc	r16, r12
      64:	0f 05       	cpc	r16, r15
      66:	12 05       	cpc	r17, r2
      68:	15 05       	cpc	r17, r5
      6a:	18 05       	cpc	r17, r8
      6c:	1c 05       	cpc	r17, r12
      6e:	20 05       	cpc	r18, r0
      70:	24 05       	cpc	r18, r4
      72:	28 05       	cpc	r18, r8
      74:	2c 05       	cpc	r18, r12
      76:	30 05       	cpc	r19, r0
      78:	34 05       	cpc	r19, r4
      7a:	38 05       	cpc	r19, r8
      7c:	3c 05       	cpc	r19, r12
      7e:	40 05       	cpc	r20, r0
      80:	44 05       	cpc	r20, r4
      82:	9d 05       	cpc	r25, r13
      84:	9d 05       	cpc	r25, r13
      86:	9d 05       	cpc	r25, r13
      88:	9d 05       	cpc	r25, r13
      8a:	9d 05       	cpc	r25, r13
      8c:	9d 05       	cpc	r25, r13
      8e:	9d 05       	cpc	r25, r13
      90:	48 05       	cpc	r20, r8
      92:	4c 05       	cpc	r20, r12
      94:	50 05       	cpc	r21, r0
      96:	54 05       	cpc	r21, r4
      98:	58 05       	cpc	r21, r8
      9a:	5c 05       	cpc	r21, r12
      9c:	60 05       	cpc	r22, r0
      9e:	64 05       	cpc	r22, r4
      a0:	68 05       	cpc	r22, r8
      a2:	6c 05       	cpc	r22, r12
      a4:	70 05       	cpc	r23, r0
      a6:	74 05       	cpc	r23, r4
      a8:	78 05       	cpc	r23, r8
      aa:	7c 05       	cpc	r23, r12
      ac:	80 05       	cpc	r24, r0
      ae:	84 05       	cpc	r24, r4
      b0:	88 05       	cpc	r24, r8
      b2:	8c 05       	cpc	r24, r12
      b4:	90 05       	cpc	r25, r0
      b6:	94 05       	cpc	r25, r4
      b8:	98 05       	cpc	r25, r8

000000ba <__ctors_end>:
      ba:	11 24       	eor	r1, r1
      bc:	1f be       	out	0x3f, r1	; 63
      be:	cf e5       	ldi	r28, 0x5F	; 95
      c0:	d8 e0       	ldi	r29, 0x08	; 8
      c2:	de bf       	out	0x3e, r29	; 62
      c4:	cd bf       	out	0x3d, r28	; 61

000000c6 <__do_copy_data>:
      c6:	12 e0       	ldi	r17, 0x02	; 2
      c8:	a0 e6       	ldi	r26, 0x60	; 96
      ca:	b0 e0       	ldi	r27, 0x00	; 0
      cc:	ec ec       	ldi	r30, 0xCC	; 204
      ce:	f6 e3       	ldi	r31, 0x36	; 54
      d0:	02 c0       	rjmp	.+4      	; 0xd6 <.do_copy_data_start>

000000d2 <.do_copy_data_loop>:
      d2:	05 90       	lpm	r0, Z+
      d4:	0d 92       	st	X+, r0

000000d6 <.do_copy_data_start>:
      d6:	a6 31       	cpi	r26, 0x16	; 22
      d8:	b1 07       	cpc	r27, r17
      da:	d9 f7       	brne	.-10     	; 0xd2 <.do_copy_data_loop>

000000dc <__do_clear_bss>:
      dc:	16 e0       	ldi	r17, 0x06	; 6
      de:	a6 e1       	ldi	r26, 0x16	; 22
      e0:	b2 e0       	ldi	r27, 0x02	; 2
      e2:	01 c0       	rjmp	.+2      	; 0xe6 <.do_clear_bss_start>

000000e4 <.do_clear_bss_loop>:
      e4:	1d 92       	st	X+, r1

000000e6 <.do_clear_bss_start>:
      e6:	a7 39       	cpi	r26, 0x97	; 151
      e8:	b1 07       	cpc	r27, r17
      ea:	e1 f7       	brne	.-8      	; 0xe4 <.do_clear_bss_loop>
      ec:	0e 94 01 17 	call	0x2e02	; 0x2e02 <main>
      f0:	0c 94 64 1b 	jmp	0x36c8	; 0x36c8 <_exit>

000000f4 <__bad_interrupt>:
      f4:	0c 94 00 00 	jmp	0	; 0x0 <__vectors>

000000f8 <rcv_spi>:
      f8:	8f ef       	ldi	r24, 0xFF	; 255
      fa:	8f b9       	out	0x0f, r24	; 15
      fc:	77 9b       	sbis	0x0e, 7	; 14
      fe:	fe cf       	rjmp	.-4      	; 0xfc <rcv_spi+0x4>
     100:	8f b1       	in	r24, 0x0f	; 15
     102:	08 95       	ret

00000104 <PLAYER_init>:
     104:	87 b3       	in	r24, 0x17	; 23
     106:	80 6b       	ori	r24, 0xB0	; 176
     108:	87 bb       	out	0x17, r24	; 23
     10a:	80 ef       	ldi	r24, 0xF0	; 240
     10c:	88 bb       	out	0x18, r24	; 24
     10e:	8d b1       	in	r24, 0x0d	; 13
     110:	80 65       	ori	r24, 0x50	; 80
     112:	8d b9       	out	0x0d, r24	; 13
     114:	70 9a       	sbi	0x0e, 0	; 14
     116:	88 e0       	ldi	r24, 0x08	; 8
     118:	83 bf       	out	0x33, r24	; 51
     11a:	82 e0       	ldi	r24, 0x02	; 2
     11c:	89 bf       	out	0x39, r24	; 57
     11e:	81 ea       	ldi	r24, 0xA1	; 161
     120:	8f bd       	out	0x2f, r24	; 47
     122:	81 e0       	ldi	r24, 0x01	; 1
     124:	8e bd       	out	0x2e, r24	; 46
     126:	08 95       	ret

00000128 <__vector_10>:
     128:	1f 92       	push	r1
     12a:	0f 92       	push	r0
     12c:	0f b6       	in	r0, 0x3f	; 63
     12e:	0f 92       	push	r0
     130:	11 24       	eor	r1, r1
     132:	2f 93       	push	r18
     134:	3f 93       	push	r19
     136:	4f 93       	push	r20
     138:	5f 93       	push	r21
     13a:	8f 93       	push	r24
     13c:	9f 93       	push	r25
     13e:	ef 93       	push	r30
     140:	ff 93       	push	r31
     142:	30 91 16 02 	lds	r19, 0x0216
     146:	33 23       	and	r19, r19
     148:	09 f0       	breq	.+2      	; 0x14c <__vector_10+0x24>
     14a:	8f c0       	rjmp	.+286    	; 0x26a <__vector_10+0x142>
     14c:	80 91 64 06 	lds	r24, 0x0664
     150:	80 31       	cpi	r24, 0x10	; 16
     152:	09 f0       	breq	.+2      	; 0x156 <__vector_10+0x2e>
     154:	4a c0       	rjmp	.+148    	; 0x1ea <__vector_10+0xc2>
     156:	80 91 63 06 	lds	r24, 0x0663
     15a:	40 91 19 02 	lds	r20, 0x0219
     15e:	50 91 1a 02 	lds	r21, 0x021A
     162:	80 ff       	sbrs	r24, 0
     164:	27 c0       	rjmp	.+78     	; 0x1b4 <__vector_10+0x8c>
     166:	80 91 4d 02 	lds	r24, 0x024D
     16a:	f8 2f       	mov	r31, r24
     16c:	ff 0f       	add	r31, r31
     16e:	e0 e0       	ldi	r30, 0x00	; 0
     170:	e4 0f       	add	r30, r20
     172:	f5 1f       	adc	r31, r21
     174:	ec 59       	subi	r30, 0x9C	; 156
     176:	fd 4f       	sbci	r31, 0xFD	; 253
     178:	80 81       	ld	r24, Z
     17a:	80 58       	subi	r24, 0x80	; 128
     17c:	80 93 18 02 	sts	0x0218, r24
     180:	ca 01       	movw	r24, r20
     182:	03 96       	adiw	r24, 0x03	; 3
     184:	90 93 1a 02 	sts	0x021A, r25
     188:	80 93 19 02 	sts	0x0219, r24
     18c:	20 91 4d 02 	lds	r18, 0x024D
     190:	f2 2f       	mov	r31, r18
     192:	ff 0f       	add	r31, r31
     194:	e0 e0       	ldi	r30, 0x00	; 0
     196:	e8 0f       	add	r30, r24
     198:	f9 1f       	adc	r31, r25
     19a:	ed 59       	subi	r30, 0x9D	; 157
     19c:	fd 4f       	sbci	r31, 0xFD	; 253
     19e:	80 81       	ld	r24, Z
     1a0:	80 58       	subi	r24, 0x80	; 128
     1a2:	80 93 17 02 	sts	0x0217, r24
     1a6:	4c 5f       	subi	r20, 0xFC	; 252
     1a8:	5f 4f       	sbci	r21, 0xFF	; 255
     1aa:	50 93 1a 02 	sts	0x021A, r21
     1ae:	40 93 19 02 	sts	0x0219, r20
     1b2:	5b c0       	rjmp	.+182    	; 0x26a <__vector_10+0x142>
     1b4:	ca 01       	movw	r24, r20
     1b6:	01 96       	adiw	r24, 0x01	; 1
     1b8:	90 93 1a 02 	sts	0x021A, r25
     1bc:	80 93 19 02 	sts	0x0219, r24
     1c0:	20 91 4d 02 	lds	r18, 0x024D
     1c4:	f2 2f       	mov	r31, r18
     1c6:	ff 0f       	add	r31, r31
     1c8:	e0 e0       	ldi	r30, 0x00	; 0
     1ca:	e8 0f       	add	r30, r24
     1cc:	f9 1f       	adc	r31, r25
     1ce:	ed 59       	subi	r30, 0x9D	; 157
     1d0:	fd 4f       	sbci	r31, 0xFD	; 253
     1d2:	20 81       	ld	r18, Z
     1d4:	20 58       	subi	r18, 0x80	; 128
     1d6:	20 93 18 02 	sts	0x0218, r18
     1da:	01 96       	adiw	r24, 0x01	; 1
     1dc:	90 93 1a 02 	sts	0x021A, r25
     1e0:	80 93 19 02 	sts	0x0219, r24
     1e4:	20 93 17 02 	sts	0x0217, r18
     1e8:	40 c0       	rjmp	.+128    	; 0x26a <__vector_10+0x142>
     1ea:	80 91 63 06 	lds	r24, 0x0663
     1ee:	40 91 19 02 	lds	r20, 0x0219
     1f2:	50 91 1a 02 	lds	r21, 0x021A
     1f6:	80 fd       	sbrc	r24, 0
     1f8:	15 c0       	rjmp	.+42     	; 0x224 <__vector_10+0xfc>
     1fa:	80 91 4d 02 	lds	r24, 0x024D
     1fe:	f8 2f       	mov	r31, r24
     200:	ff 0f       	add	r31, r31
     202:	e0 e0       	ldi	r30, 0x00	; 0
     204:	e4 0f       	add	r30, r20
     206:	f5 1f       	adc	r31, r21
     208:	ed 59       	subi	r30, 0x9D	; 157
     20a:	fd 4f       	sbci	r31, 0xFD	; 253
     20c:	80 81       	ld	r24, Z
     20e:	80 93 18 02 	sts	0x0218, r24
     212:	4f 5f       	subi	r20, 0xFF	; 255
     214:	5f 4f       	sbci	r21, 0xFF	; 255
     216:	50 93 1a 02 	sts	0x021A, r21
     21a:	40 93 19 02 	sts	0x0219, r20
     21e:	80 93 17 02 	sts	0x0217, r24
     222:	23 c0       	rjmp	.+70     	; 0x26a <__vector_10+0x142>
     224:	80 91 4d 02 	lds	r24, 0x024D
     228:	f8 2f       	mov	r31, r24
     22a:	ff 0f       	add	r31, r31
     22c:	e0 e0       	ldi	r30, 0x00	; 0
     22e:	e4 0f       	add	r30, r20
     230:	f5 1f       	adc	r31, r21
     232:	ed 59       	subi	r30, 0x9D	; 157
     234:	fd 4f       	sbci	r31, 0xFD	; 253
     236:	80 81       	ld	r24, Z
     238:	80 93 18 02 	sts	0x0218, r24
     23c:	ca 01       	movw	r24, r20
     23e:	01 96       	adiw	r24, 0x01	; 1
     240:	90 93 1a 02 	sts	0x021A, r25
     244:	80 93 19 02 	sts	0x0219, r24
     248:	20 91 4d 02 	lds	r18, 0x024D
     24c:	f2 2f       	mov	r31, r18
     24e:	ff 0f       	add	r31, r31
     250:	e0 e0       	ldi	r30, 0x00	; 0
     252:	e8 0f       	add	r30, r24
     254:	f9 1f       	adc	r31, r25
     256:	ed 59       	subi	r30, 0x9D	; 157
     258:	fd 4f       	sbci	r31, 0xFD	; 253
     25a:	20 81       	ld	r18, Z
     25c:	20 93 17 02 	sts	0x0217, r18
     260:	01 96       	adiw	r24, 0x01	; 1
     262:	90 93 1a 02 	sts	0x021A, r25
     266:	80 93 19 02 	sts	0x0219, r24
     26a:	80 91 8a 01 	lds	r24, 0x018A
     26e:	87 fd       	sbrc	r24, 7
     270:	20 c0       	rjmp	.+64     	; 0x2b2 <__vector_10+0x18a>
     272:	80 91 8a 01 	lds	r24, 0x018A
     276:	3f 5f       	subi	r19, 0xFF	; 255
     278:	30 93 16 02 	sts	0x0216, r19
     27c:	31 50       	subi	r19, 0x01	; 1
     27e:	23 2f       	mov	r18, r19
     280:	30 e0       	ldi	r19, 0x00	; 0
     282:	99 27       	eor	r25, r25
     284:	87 fd       	sbrc	r24, 7
     286:	90 95       	com	r25
     288:	82 17       	cp	r24, r18
     28a:	93 07       	cpc	r25, r19
     28c:	bc f4       	brge	.+46     	; 0x2bc <__vector_10+0x194>
     28e:	10 92 16 02 	sts	0x0216, r1
     292:	20 91 8b 01 	lds	r18, 0x018B
     296:	33 27       	eor	r19, r19
     298:	27 fd       	sbrc	r18, 7
     29a:	30 95       	com	r19
     29c:	80 91 19 02 	lds	r24, 0x0219
     2a0:	90 91 1a 02 	lds	r25, 0x021A
     2a4:	82 0f       	add	r24, r18
     2a6:	93 1f       	adc	r25, r19
     2a8:	90 93 1a 02 	sts	0x021A, r25
     2ac:	80 93 19 02 	sts	0x0219, r24
     2b0:	05 c0       	rjmp	.+10     	; 0x2bc <__vector_10+0x194>
     2b2:	10 92 16 02 	sts	0x0216, r1
     2b6:	84 e0       	ldi	r24, 0x04	; 4
     2b8:	80 93 8b 01 	sts	0x018B, r24
     2bc:	20 91 18 02 	lds	r18, 0x0218
     2c0:	82 2f       	mov	r24, r18
     2c2:	90 e0       	ldi	r25, 0x00	; 0
     2c4:	9b bd       	out	0x2b, r25	; 43
     2c6:	8a bd       	out	0x2a, r24	; 42
     2c8:	80 91 17 02 	lds	r24, 0x0217
     2cc:	90 e0       	ldi	r25, 0x00	; 0
     2ce:	99 bd       	out	0x29, r25	; 41
     2d0:	88 bd       	out	0x28, r24	; 40
     2d2:	80 91 19 02 	lds	r24, 0x0219
     2d6:	90 91 1a 02 	lds	r25, 0x021A
     2da:	80 50       	subi	r24, 0x00	; 0
     2dc:	92 40       	sbci	r25, 0x02	; 2
     2de:	60 f0       	brcs	.+24     	; 0x2f8 <__vector_10+0x1d0>
     2e0:	10 92 1a 02 	sts	0x021A, r1
     2e4:	10 92 19 02 	sts	0x0219, r1
     2e8:	91 e0       	ldi	r25, 0x01	; 1
     2ea:	90 93 62 02 	sts	0x0262, r25
     2ee:	80 91 4d 02 	lds	r24, 0x024D
     2f2:	89 27       	eor	r24, r25
     2f4:	80 93 4d 02 	sts	0x024D, r24
     2f8:	80 91 60 02 	lds	r24, 0x0260
     2fc:	90 91 61 02 	lds	r25, 0x0261
     300:	01 96       	adiw	r24, 0x01	; 1
     302:	90 93 61 02 	sts	0x0261, r25
     306:	80 93 60 02 	sts	0x0260, r24
     30a:	20 93 36 02 	sts	0x0236, r18
     30e:	ff 91       	pop	r31
     310:	ef 91       	pop	r30
     312:	9f 91       	pop	r25
     314:	8f 91       	pop	r24
     316:	5f 91       	pop	r21
     318:	4f 91       	pop	r20
     31a:	3f 91       	pop	r19
     31c:	2f 91       	pop	r18
     31e:	0f 90       	pop	r0
     320:	0f be       	out	0x3f, r0	; 63
     322:	0f 90       	pop	r0
     324:	1f 90       	pop	r1
     326:	18 95       	reti

00000328 <play>:
     328:	cf 92       	push	r12
     32a:	df 92       	push	r13
     32c:	ef 92       	push	r14
     32e:	ff 92       	push	r15
     330:	0f 93       	push	r16
     332:	1f 93       	push	r17
     334:	df 93       	push	r29
     336:	cf 93       	push	r28
     338:	cd b7       	in	r28, 0x3d	; 61
     33a:	de b7       	in	r29, 0x3e	; 62
     33c:	28 97       	sbiw	r28, 0x08	; 8
     33e:	0f b6       	in	r0, 0x3f	; 63
     340:	f8 94       	cli
     342:	de bf       	out	0x3e, r29	; 62
     344:	0f be       	out	0x3f, r0	; 63
     346:	cd bf       	out	0x3d, r28	; 61
     348:	0e 94 66 0d 	call	0x1acc	; 0x1acc <pf_open>
     34c:	c8 2e       	mov	r12, r24
     34e:	88 23       	and	r24, r24
     350:	09 f0       	breq	.+2      	; 0x354 <play+0x2c>
     352:	73 c1       	rjmp	.+742    	; 0x63a <play+0x312>
     354:	83 e6       	ldi	r24, 0x63	; 99
     356:	92 e0       	ldi	r25, 0x02	; 2
     358:	6c e0       	ldi	r22, 0x0C	; 12
     35a:	70 e0       	ldi	r23, 0x00	; 0
     35c:	4e e4       	ldi	r20, 0x4E	; 78
     35e:	52 e0       	ldi	r21, 0x02	; 2
     360:	0e 94 cd 0d 	call	0x1b9a	; 0x1b9a <pf_read>
     364:	88 23       	and	r24, r24
     366:	31 f0       	breq	.+12     	; 0x374 <play+0x4c>
     368:	81 e0       	ldi	r24, 0x01	; 1
     36a:	e8 2e       	mov	r14, r24
     36c:	f1 2c       	mov	r15, r1
     36e:	01 2d       	mov	r16, r1
     370:	11 2d       	mov	r17, r1
     372:	e0 c0       	rjmp	.+448    	; 0x534 <play+0x20c>
     374:	80 91 4e 02 	lds	r24, 0x024E
     378:	90 91 4f 02 	lds	r25, 0x024F
     37c:	0c 97       	sbiw	r24, 0x0c	; 12
     37e:	09 f0       	breq	.+2      	; 0x382 <play+0x5a>
     380:	6d c1       	rjmp	.+730    	; 0x65c <play+0x334>
     382:	80 91 6b 02 	lds	r24, 0x026B
     386:	90 91 6c 02 	lds	r25, 0x026C
     38a:	a0 91 6d 02 	lds	r26, 0x026D
     38e:	b0 91 6e 02 	lds	r27, 0x026E
     392:	87 55       	subi	r24, 0x57	; 87
     394:	91 44       	sbci	r25, 0x41	; 65
     396:	a6 45       	sbci	r26, 0x56	; 86
     398:	b5 44       	sbci	r27, 0x45	; 69
     39a:	09 f0       	breq	.+2      	; 0x39e <play+0x76>
     39c:	5f c1       	rjmp	.+702    	; 0x65c <play+0x334>
     39e:	83 e6       	ldi	r24, 0x63	; 99
     3a0:	92 e0       	ldi	r25, 0x02	; 2
     3a2:	68 e0       	ldi	r22, 0x08	; 8
     3a4:	70 e0       	ldi	r23, 0x00	; 0
     3a6:	4e e4       	ldi	r20, 0x4E	; 78
     3a8:	52 e0       	ldi	r21, 0x02	; 2
     3aa:	0e 94 cd 0d 	call	0x1b9a	; 0x1b9a <pf_read>
     3ae:	80 91 4e 02 	lds	r24, 0x024E
     3b2:	90 91 4f 02 	lds	r25, 0x024F
     3b6:	08 97       	sbiw	r24, 0x08	; 8
     3b8:	09 f0       	breq	.+2      	; 0x3bc <play+0x94>
     3ba:	50 c1       	rjmp	.+672    	; 0x65c <play+0x334>
     3bc:	e0 90 67 02 	lds	r14, 0x0267
     3c0:	f0 90 68 02 	lds	r15, 0x0268
     3c4:	00 91 69 02 	lds	r16, 0x0269
     3c8:	10 91 6a 02 	lds	r17, 0x026A
     3cc:	80 91 63 02 	lds	r24, 0x0263
     3d0:	90 91 64 02 	lds	r25, 0x0264
     3d4:	a0 91 65 02 	lds	r26, 0x0265
     3d8:	b0 91 66 02 	lds	r27, 0x0266
     3dc:	8c 34       	cpi	r24, 0x4C	; 76
     3de:	29 e4       	ldi	r18, 0x49	; 73
     3e0:	92 07       	cpc	r25, r18
     3e2:	23 e5       	ldi	r18, 0x53	; 83
     3e4:	a2 07       	cpc	r26, r18
     3e6:	24 e5       	ldi	r18, 0x54	; 84
     3e8:	b2 07       	cpc	r27, r18
     3ea:	09 f4       	brne	.+2      	; 0x3ee <play+0xc6>
     3ec:	8b c0       	rjmp	.+278    	; 0x504 <play+0x1dc>
     3ee:	8d 34       	cpi	r24, 0x4D	; 77
     3f0:	29 e4       	ldi	r18, 0x49	; 73
     3f2:	92 07       	cpc	r25, r18
     3f4:	23 e5       	ldi	r18, 0x53	; 83
     3f6:	a2 07       	cpc	r26, r18
     3f8:	24 e5       	ldi	r18, 0x54	; 84
     3fa:	b2 07       	cpc	r27, r18
     3fc:	38 f4       	brcc	.+14     	; 0x40c <play+0xe4>
     3fe:	86 56       	subi	r24, 0x66	; 102
     400:	9d 46       	sbci	r25, 0x6D	; 109
     402:	a4 47       	sbci	r26, 0x74	; 116
     404:	b0 42       	sbci	r27, 0x20	; 32
     406:	09 f0       	breq	.+2      	; 0x40a <play+0xe2>
     408:	29 c1       	rjmp	.+594    	; 0x65c <play+0x334>
     40a:	10 c0       	rjmp	.+32     	; 0x42c <play+0x104>
     40c:	84 36       	cpi	r24, 0x64	; 100
     40e:	21 e6       	ldi	r18, 0x61	; 97
     410:	92 07       	cpc	r25, r18
     412:	24 e7       	ldi	r18, 0x74	; 116
     414:	a2 07       	cpc	r26, r18
     416:	21 e6       	ldi	r18, 0x61	; 97
     418:	b2 07       	cpc	r27, r18
     41a:	09 f4       	brne	.+2      	; 0x41e <play+0xf6>
     41c:	84 c0       	rjmp	.+264    	; 0x526 <play+0x1fe>
     41e:	86 56       	subi	r24, 0x66	; 102
     420:	91 46       	sbci	r25, 0x61	; 97
     422:	a3 46       	sbci	r26, 0x63	; 99
     424:	b4 47       	sbci	r27, 0x74	; 116
     426:	09 f0       	breq	.+2      	; 0x42a <play+0x102>
     428:	19 c1       	rjmp	.+562    	; 0x65c <play+0x334>
     42a:	6c c0       	rjmp	.+216    	; 0x504 <play+0x1dc>
     42c:	d8 01       	movw	r26, r16
     42e:	c7 01       	movw	r24, r14
     430:	40 97       	sbiw	r24, 0x10	; 16
     432:	a1 09       	sbc	r26, r1
     434:	b1 09       	sbc	r27, r1
     436:	85 35       	cpi	r24, 0x55	; 85
     438:	91 05       	cpc	r25, r1
     43a:	a1 05       	cpc	r26, r1
     43c:	b1 05       	cpc	r27, r1
     43e:	08 f0       	brcs	.+2      	; 0x442 <play+0x11a>
     440:	0d c1       	rjmp	.+538    	; 0x65c <play+0x334>
     442:	83 e6       	ldi	r24, 0x63	; 99
     444:	92 e0       	ldi	r25, 0x02	; 2
     446:	b7 01       	movw	r22, r14
     448:	4e e4       	ldi	r20, 0x4E	; 78
     44a:	52 e0       	ldi	r21, 0x02	; 2
     44c:	0e 94 cd 0d 	call	0x1b9a	; 0x1b9a <pf_read>
     450:	80 91 4e 02 	lds	r24, 0x024E
     454:	90 91 4f 02 	lds	r25, 0x024F
     458:	a0 e0       	ldi	r26, 0x00	; 0
     45a:	b0 e0       	ldi	r27, 0x00	; 0
     45c:	8e 15       	cp	r24, r14
     45e:	9f 05       	cpc	r25, r15
     460:	a0 07       	cpc	r26, r16
     462:	b1 07       	cpc	r27, r17
     464:	09 f0       	breq	.+2      	; 0x468 <play+0x140>
     466:	fa c0       	rjmp	.+500    	; 0x65c <play+0x334>
     468:	80 91 63 02 	lds	r24, 0x0263
     46c:	81 30       	cpi	r24, 0x01	; 1
     46e:	09 f0       	breq	.+2      	; 0x472 <play+0x14a>
     470:	f5 c0       	rjmp	.+490    	; 0x65c <play+0x334>
     472:	90 91 65 02 	lds	r25, 0x0265
     476:	89 2f       	mov	r24, r25
     478:	81 50       	subi	r24, 0x01	; 1
     47a:	82 30       	cpi	r24, 0x02	; 2
     47c:	08 f0       	brcs	.+2      	; 0x480 <play+0x158>
     47e:	ee c0       	rjmp	.+476    	; 0x65c <play+0x334>
     480:	20 e0       	ldi	r18, 0x00	; 0
     482:	92 30       	cpi	r25, 0x02	; 2
     484:	09 f4       	brne	.+2      	; 0x488 <play+0x160>
     486:	21 e0       	ldi	r18, 0x01	; 1
     488:	80 91 63 06 	lds	r24, 0x0663
     48c:	8e 7f       	andi	r24, 0xFE	; 254
     48e:	82 2b       	or	r24, r18
     490:	80 93 63 06 	sts	0x0663, r24
     494:	80 91 71 02 	lds	r24, 0x0271
     498:	88 30       	cpi	r24, 0x08	; 8
     49a:	19 f0       	breq	.+6      	; 0x4a2 <play+0x17a>
     49c:	80 31       	cpi	r24, 0x10	; 16
     49e:	09 f0       	breq	.+2      	; 0x4a2 <play+0x17a>
     4a0:	dd c0       	rjmp	.+442    	; 0x65c <play+0x334>
     4a2:	80 93 64 06 	sts	0x0664, r24
     4a6:	80 91 63 06 	lds	r24, 0x0663
     4aa:	8d 7f       	andi	r24, 0xFD	; 253
     4ac:	80 93 63 06 	sts	0x0663, r24
     4b0:	80 91 67 02 	lds	r24, 0x0267
     4b4:	90 91 68 02 	lds	r25, 0x0268
     4b8:	90 93 66 06 	sts	0x0666, r25
     4bc:	80 93 65 06 	sts	0x0665, r24
     4c0:	7c 01       	movw	r14, r24
     4c2:	00 e0       	ldi	r16, 0x00	; 0
     4c4:	10 e0       	ldi	r17, 0x00	; 0
     4c6:	60 e8       	ldi	r22, 0x80	; 128
     4c8:	74 e8       	ldi	r23, 0x84	; 132
     4ca:	8e e1       	ldi	r24, 0x1E	; 30
     4cc:	90 e0       	ldi	r25, 0x00	; 0
     4ce:	a8 01       	movw	r20, r16
     4d0:	97 01       	movw	r18, r14
     4d2:	0e 94 71 18 	call	0x30e2	; 0x30e2 <__udivmodsi4>
     4d6:	21 50       	subi	r18, 0x01	; 1
     4d8:	30 40       	sbci	r19, 0x00	; 0
     4da:	2f 3f       	cpi	r18, 0xFF	; 255
     4dc:	31 05       	cpc	r19, r1
     4de:	81 f0       	breq	.+32     	; 0x500 <play+0x1d8>
     4e0:	78 f0       	brcs	.+30     	; 0x500 <play+0x1d8>
     4e2:	60 e9       	ldi	r22, 0x90	; 144
     4e4:	70 ed       	ldi	r23, 0xD0	; 208
     4e6:	83 e0       	ldi	r24, 0x03	; 3
     4e8:	90 e0       	ldi	r25, 0x00	; 0
     4ea:	a8 01       	movw	r20, r16
     4ec:	97 01       	movw	r18, r14
     4ee:	0e 94 71 18 	call	0x30e2	; 0x30e2 <__udivmodsi4>
     4f2:	21 50       	subi	r18, 0x01	; 1
     4f4:	30 40       	sbci	r19, 0x00	; 0
     4f6:	80 91 63 06 	lds	r24, 0x0663
     4fa:	82 60       	ori	r24, 0x02	; 2
     4fc:	80 93 63 06 	sts	0x0663, r24
     500:	2c bf       	out	0x3c, r18	; 60
     502:	4d cf       	rjmp	.-358    	; 0x39e <play+0x76>
     504:	80 91 7f 06 	lds	r24, 0x067F
     508:	90 91 80 06 	lds	r25, 0x0680
     50c:	a0 91 81 06 	lds	r26, 0x0681
     510:	b0 91 82 06 	lds	r27, 0x0682
     514:	e8 0e       	add	r14, r24
     516:	f9 1e       	adc	r15, r25
     518:	0a 1f       	adc	r16, r26
     51a:	1b 1f       	adc	r17, r27
     51c:	c8 01       	movw	r24, r16
     51e:	b7 01       	movw	r22, r14
     520:	0e 94 ee 09 	call	0x13dc	; 0x13dc <pf_lseek>
     524:	3c cf       	rjmp	.-392    	; 0x39e <play+0x76>
     526:	8f ef       	ldi	r24, 0xFF	; 255
     528:	e8 16       	cp	r14, r24
     52a:	f1 04       	cpc	r15, r1
     52c:	01 05       	cpc	r16, r1
     52e:	11 05       	cpc	r17, r1
     530:	09 f0       	breq	.+2      	; 0x534 <play+0x20c>
     532:	10 f4       	brcc	.+4      	; 0x538 <play+0x210>
     534:	c7 01       	movw	r24, r14
     536:	83 c0       	rjmp	.+262    	; 0x63e <play+0x316>
     538:	60 e0       	ldi	r22, 0x00	; 0
     53a:	70 e0       	ldi	r23, 0x00	; 0
     53c:	80 e0       	ldi	r24, 0x00	; 0
     53e:	90 e0       	ldi	r25, 0x00	; 0
     540:	0e 94 ee 09 	call	0x13dc	; 0x13dc <pf_lseek>
     544:	83 e6       	ldi	r24, 0x63	; 99
     546:	92 e0       	ldi	r25, 0x02	; 2
     548:	60 e0       	ldi	r22, 0x00	; 0
     54a:	72 e0       	ldi	r23, 0x02	; 2
     54c:	4e e4       	ldi	r20, 0x4E	; 78
     54e:	52 e0       	ldi	r21, 0x02	; 2
     550:	0e 94 cd 0d 	call	0x1b9a	; 0x1b9a <pf_read>
     554:	83 e6       	ldi	r24, 0x63	; 99
     556:	94 e0       	ldi	r25, 0x04	; 4
     558:	60 e0       	ldi	r22, 0x00	; 0
     55a:	72 e0       	ldi	r23, 0x02	; 2
     55c:	4e e4       	ldi	r20, 0x4E	; 78
     55e:	52 e0       	ldi	r21, 0x02	; 2
     560:	0e 94 cd 0d 	call	0x1b9a	; 0x1b9a <pf_read>
     564:	80 91 63 06 	lds	r24, 0x0663
     568:	81 fd       	sbrc	r24, 1
     56a:	03 c0       	rjmp	.+6      	; 0x572 <play+0x24a>
     56c:	83 b7       	in	r24, 0x33	; 51
     56e:	82 60       	ori	r24, 0x02	; 2
     570:	02 c0       	rjmp	.+4      	; 0x576 <play+0x24e>
     572:	83 b7       	in	r24, 0x33	; 51
     574:	83 60       	ori	r24, 0x03	; 3
     576:	83 bf       	out	0x33, r24	; 51
     578:	81 b3       	in	r24, 0x11	; 17
     57a:	80 63       	ori	r24, 0x30	; 48
     57c:	81 bb       	out	0x11, r24	; 17
     57e:	de 01       	movw	r26, r28
     580:	11 96       	adiw	r26, 0x01	; 1
     582:	ec e8       	ldi	r30, 0x8C	; 140
     584:	f1 e0       	ldi	r31, 0x01	; 1
     586:	88 e0       	ldi	r24, 0x08	; 8
     588:	01 90       	ld	r0, Z+
     58a:	0d 92       	st	X+, r0
     58c:	81 50       	subi	r24, 0x01	; 1
     58e:	e1 f7       	brne	.-8      	; 0x588 <play+0x260>
     590:	dd 24       	eor	r13, r13
     592:	d3 94       	inc	r13
     594:	7e 01       	movw	r14, r28
     596:	08 94       	sec
     598:	e1 1c       	adc	r14, r1
     59a:	f1 1c       	adc	r15, r1
     59c:	80 91 62 02 	lds	r24, 0x0262
     5a0:	88 23       	and	r24, r24
     5a2:	e1 f3       	breq	.-8      	; 0x59c <play+0x274>
     5a4:	80 91 4d 02 	lds	r24, 0x024D
     5a8:	8d 25       	eor	r24, r13
     5aa:	18 2f       	mov	r17, r24
     5ac:	11 0f       	add	r17, r17
     5ae:	00 e0       	ldi	r16, 0x00	; 0
     5b0:	c8 01       	movw	r24, r16
     5b2:	8d 59       	subi	r24, 0x9D	; 157
     5b4:	9d 4f       	sbci	r25, 0xFD	; 253
     5b6:	60 e0       	ldi	r22, 0x00	; 0
     5b8:	72 e0       	ldi	r23, 0x02	; 2
     5ba:	4e e4       	ldi	r20, 0x4E	; 78
     5bc:	52 e0       	ldi	r21, 0x02	; 2
     5be:	0e 94 cd 0d 	call	0x1b9a	; 0x1b9a <pf_read>
     5c2:	80 91 4e 02 	lds	r24, 0x024E
     5c6:	90 91 4f 02 	lds	r25, 0x024F
     5ca:	80 50       	subi	r24, 0x00	; 0
     5cc:	92 40       	sbci	r25, 0x02	; 2
     5ce:	e8 f0       	brcs	.+58     	; 0x60a <play+0x2e2>
     5d0:	80 91 36 02 	lds	r24, 0x0236
     5d4:	61 e2       	ldi	r22, 0x21	; 33
     5d6:	0e 94 65 18 	call	0x30ca	; 0x30ca <__udivmodqi4>
     5da:	f7 01       	movw	r30, r14
     5dc:	e8 0f       	add	r30, r24
     5de:	f1 1d       	adc	r31, r1
     5e0:	80 81       	ld	r24, Z
     5e2:	80 95       	com	r24
     5e4:	85 bb       	out	0x15, r24	; 21
     5e6:	20 91 60 02 	lds	r18, 0x0260
     5ea:	30 91 61 02 	lds	r19, 0x0261
     5ee:	80 91 65 06 	lds	r24, 0x0665
     5f2:	90 91 66 06 	lds	r25, 0x0666
     5f6:	82 17       	cp	r24, r18
     5f8:	93 07       	cpc	r25, r19
     5fa:	20 f4       	brcc	.+8      	; 0x604 <play+0x2dc>
     5fc:	10 92 61 02 	sts	0x0261, r1
     600:	10 92 60 02 	sts	0x0260, r1
     604:	10 92 62 02 	sts	0x0262, r1
     608:	c9 cf       	rjmp	.-110    	; 0x59c <play+0x274>
     60a:	81 b3       	in	r24, 0x11	; 17
     60c:	8f 7c       	andi	r24, 0xCF	; 207
     60e:	81 bb       	out	0x11, r24	; 17
     610:	80 91 63 06 	lds	r24, 0x0663
     614:	81 fd       	sbrc	r24, 1
     616:	03 c0       	rjmp	.+6      	; 0x61e <play+0x2f6>
     618:	83 b7       	in	r24, 0x33	; 51
     61a:	8d 7f       	andi	r24, 0xFD	; 253
     61c:	02 c0       	rjmp	.+4      	; 0x622 <play+0x2fa>
     61e:	83 b7       	in	r24, 0x33	; 51
     620:	8c 7f       	andi	r24, 0xFC	; 252
     622:	83 bf       	out	0x33, r24	; 51
     624:	8f ef       	ldi	r24, 0xFF	; 255
     626:	85 bb       	out	0x15, r24	; 21
     628:	88 e8       	ldi	r24, 0x88	; 136
     62a:	93 e1       	ldi	r25, 0x13	; 19
     62c:	20 e9       	ldi	r18, 0x90	; 144
     62e:	31 e0       	ldi	r19, 0x01	; 1
     630:	f9 01       	movw	r30, r18
     632:	31 97       	sbiw	r30, 0x01	; 1
     634:	f1 f7       	brne	.-4      	; 0x632 <play+0x30a>
     636:	01 97       	sbiw	r24, 0x01	; 1
     638:	d9 f7       	brne	.-10     	; 0x630 <play+0x308>
     63a:	8c 2d       	mov	r24, r12
     63c:	90 e0       	ldi	r25, 0x00	; 0
     63e:	28 96       	adiw	r28, 0x08	; 8
     640:	0f b6       	in	r0, 0x3f	; 63
     642:	f8 94       	cli
     644:	de bf       	out	0x3e, r29	; 62
     646:	0f be       	out	0x3f, r0	; 63
     648:	cd bf       	out	0x3d, r28	; 61
     64a:	cf 91       	pop	r28
     64c:	df 91       	pop	r29
     64e:	1f 91       	pop	r17
     650:	0f 91       	pop	r16
     652:	ff 90       	pop	r15
     654:	ef 90       	pop	r14
     656:	df 90       	pop	r13
     658:	cf 90       	pop	r12
     65a:	08 95       	ret
     65c:	ee 24       	eor	r14, r14
     65e:	ff 24       	eor	r15, r15
     660:	87 01       	movw	r16, r14
     662:	68 cf       	rjmp	.-304    	; 0x534 <play+0x20c>

00000664 <dzwiek>:
     664:	df 93       	push	r29
     666:	cf 93       	push	r28
     668:	cd b7       	in	r28, 0x3d	; 61
     66a:	de b7       	in	r29, 0x3e	; 62
     66c:	ca 52       	subi	r28, 0x2A	; 42
     66e:	d1 40       	sbci	r29, 0x01	; 1
     670:	0f b6       	in	r0, 0x3f	; 63
     672:	f8 94       	cli
     674:	de bf       	out	0x3e, r29	; 62
     676:	0f be       	out	0x3f, r0	; 63
     678:	cd bf       	out	0x3d, r28	; 61
     67a:	de 01       	movw	r26, r28
     67c:	11 96       	adiw	r26, 0x01	; 1
     67e:	e0 e6       	ldi	r30, 0x60	; 96
     680:	f0 e0       	ldi	r31, 0x00	; 0
     682:	26 e0       	ldi	r18, 0x06	; 6
     684:	01 90       	ld	r0, Z+
     686:	0d 92       	st	X+, r0
     688:	21 50       	subi	r18, 0x01	; 1
     68a:	e1 f7       	brne	.-8      	; 0x684 <dzwiek+0x20>
     68c:	de 01       	movw	r26, r28
     68e:	17 96       	adiw	r26, 0x07	; 7
     690:	e6 e6       	ldi	r30, 0x66	; 102
     692:	f0 e0       	ldi	r31, 0x00	; 0
     694:	26 e0       	ldi	r18, 0x06	; 6
     696:	01 90       	ld	r0, Z+
     698:	0d 92       	st	X+, r0
     69a:	21 50       	subi	r18, 0x01	; 1
     69c:	e1 f7       	brne	.-8      	; 0x696 <dzwiek+0x32>
     69e:	de 01       	movw	r26, r28
     6a0:	1d 96       	adiw	r26, 0x0d	; 13
     6a2:	ec e6       	ldi	r30, 0x6C	; 108
     6a4:	f0 e0       	ldi	r31, 0x00	; 0
     6a6:	26 e0       	ldi	r18, 0x06	; 6
     6a8:	01 90       	ld	r0, Z+
     6aa:	0d 92       	st	X+, r0
     6ac:	21 50       	subi	r18, 0x01	; 1
     6ae:	e1 f7       	brne	.-8      	; 0x6a8 <dzwiek+0x44>
     6b0:	de 01       	movw	r26, r28
     6b2:	53 96       	adiw	r26, 0x13	; 19
     6b4:	e2 e7       	ldi	r30, 0x72	; 114
     6b6:	f0 e0       	ldi	r31, 0x00	; 0
     6b8:	26 e0       	ldi	r18, 0x06	; 6
     6ba:	01 90       	ld	r0, Z+
     6bc:	0d 92       	st	X+, r0
     6be:	21 50       	subi	r18, 0x01	; 1
     6c0:	e1 f7       	brne	.-8      	; 0x6ba <dzwiek+0x56>
     6c2:	de 01       	movw	r26, r28
     6c4:	59 96       	adiw	r26, 0x19	; 25
     6c6:	e8 e7       	ldi	r30, 0x78	; 120
     6c8:	f0 e0       	ldi	r31, 0x00	; 0
     6ca:	26 e0       	ldi	r18, 0x06	; 6
     6cc:	01 90       	ld	r0, Z+
     6ce:	0d 92       	st	X+, r0
     6d0:	21 50       	subi	r18, 0x01	; 1
     6d2:	e1 f7       	brne	.-8      	; 0x6cc <dzwiek+0x68>
     6d4:	de 01       	movw	r26, r28
     6d6:	5f 96       	adiw	r26, 0x1f	; 31
     6d8:	ee e7       	ldi	r30, 0x7E	; 126
     6da:	f0 e0       	ldi	r31, 0x00	; 0
     6dc:	26 e0       	ldi	r18, 0x06	; 6
     6de:	01 90       	ld	r0, Z+
     6e0:	0d 92       	st	X+, r0
     6e2:	21 50       	subi	r18, 0x01	; 1
     6e4:	e1 f7       	brne	.-8      	; 0x6de <dzwiek+0x7a>
     6e6:	de 01       	movw	r26, r28
     6e8:	95 96       	adiw	r26, 0x25	; 37
     6ea:	e4 e8       	ldi	r30, 0x84	; 132
     6ec:	f0 e0       	ldi	r31, 0x00	; 0
     6ee:	26 e0       	ldi	r18, 0x06	; 6
     6f0:	01 90       	ld	r0, Z+
     6f2:	0d 92       	st	X+, r0
     6f4:	21 50       	subi	r18, 0x01	; 1
     6f6:	e1 f7       	brne	.-8      	; 0x6f0 <dzwiek+0x8c>
     6f8:	de 01       	movw	r26, r28
     6fa:	9b 96       	adiw	r26, 0x2b	; 43
     6fc:	ea e8       	ldi	r30, 0x8A	; 138
     6fe:	f0 e0       	ldi	r31, 0x00	; 0
     700:	26 e0       	ldi	r18, 0x06	; 6
     702:	01 90       	ld	r0, Z+
     704:	0d 92       	st	X+, r0
     706:	21 50       	subi	r18, 0x01	; 1
     708:	e1 f7       	brne	.-8      	; 0x702 <dzwiek+0x9e>
     70a:	de 01       	movw	r26, r28
     70c:	d1 96       	adiw	r26, 0x31	; 49
     70e:	e0 e9       	ldi	r30, 0x90	; 144
     710:	f0 e0       	ldi	r31, 0x00	; 0
     712:	26 e0       	ldi	r18, 0x06	; 6
     714:	01 90       	ld	r0, Z+
     716:	0d 92       	st	X+, r0
     718:	21 50       	subi	r18, 0x01	; 1
     71a:	e1 f7       	brne	.-8      	; 0x714 <dzwiek+0xb0>
     71c:	de 01       	movw	r26, r28
     71e:	d7 96       	adiw	r26, 0x37	; 55
     720:	e6 e9       	ldi	r30, 0x96	; 150
     722:	f0 e0       	ldi	r31, 0x00	; 0
     724:	26 e0       	ldi	r18, 0x06	; 6
     726:	01 90       	ld	r0, Z+
     728:	0d 92       	st	X+, r0
     72a:	21 50       	subi	r18, 0x01	; 1
     72c:	e1 f7       	brne	.-8      	; 0x726 <dzwiek+0xc2>
     72e:	de 01       	movw	r26, r28
     730:	dd 96       	adiw	r26, 0x3d	; 61
     732:	ec e9       	ldi	r30, 0x9C	; 156
     734:	f0 e0       	ldi	r31, 0x00	; 0
     736:	27 e0       	ldi	r18, 0x07	; 7
     738:	01 90       	ld	r0, Z+
     73a:	0d 92       	st	X+, r0
     73c:	21 50       	subi	r18, 0x01	; 1
     73e:	e1 f7       	brne	.-8      	; 0x738 <dzwiek+0xd4>
     740:	de 01       	movw	r26, r28
     742:	ac 5b       	subi	r26, 0xBC	; 188
     744:	bf 4f       	sbci	r27, 0xFF	; 255
     746:	e3 ea       	ldi	r30, 0xA3	; 163
     748:	f0 e0       	ldi	r31, 0x00	; 0
     74a:	27 e0       	ldi	r18, 0x07	; 7
     74c:	01 90       	ld	r0, Z+
     74e:	0d 92       	st	X+, r0
     750:	21 50       	subi	r18, 0x01	; 1
     752:	e1 f7       	brne	.-8      	; 0x74c <dzwiek+0xe8>
     754:	de 01       	movw	r26, r28
     756:	a5 5b       	subi	r26, 0xB5	; 181
     758:	bf 4f       	sbci	r27, 0xFF	; 255
     75a:	ea ea       	ldi	r30, 0xAA	; 170
     75c:	f0 e0       	ldi	r31, 0x00	; 0
     75e:	27 e0       	ldi	r18, 0x07	; 7
     760:	01 90       	ld	r0, Z+
     762:	0d 92       	st	X+, r0
     764:	21 50       	subi	r18, 0x01	; 1
     766:	e1 f7       	brne	.-8      	; 0x760 <dzwiek+0xfc>
     768:	de 01       	movw	r26, r28
     76a:	ae 5a       	subi	r26, 0xAE	; 174
     76c:	bf 4f       	sbci	r27, 0xFF	; 255
     76e:	e1 eb       	ldi	r30, 0xB1	; 177
     770:	f0 e0       	ldi	r31, 0x00	; 0
     772:	27 e0       	ldi	r18, 0x07	; 7
     774:	01 90       	ld	r0, Z+
     776:	0d 92       	st	X+, r0
     778:	21 50       	subi	r18, 0x01	; 1
     77a:	e1 f7       	brne	.-8      	; 0x774 <dzwiek+0x110>
     77c:	de 01       	movw	r26, r28
     77e:	a7 5a       	subi	r26, 0xA7	; 167
     780:	bf 4f       	sbci	r27, 0xFF	; 255
     782:	e8 eb       	ldi	r30, 0xB8	; 184
     784:	f0 e0       	ldi	r31, 0x00	; 0
     786:	27 e0       	ldi	r18, 0x07	; 7
     788:	01 90       	ld	r0, Z+
     78a:	0d 92       	st	X+, r0
     78c:	21 50       	subi	r18, 0x01	; 1
     78e:	e1 f7       	brne	.-8      	; 0x788 <dzwiek+0x124>
     790:	de 01       	movw	r26, r28
     792:	a0 5a       	subi	r26, 0xA0	; 160
     794:	bf 4f       	sbci	r27, 0xFF	; 255
     796:	ef eb       	ldi	r30, 0xBF	; 191
     798:	f0 e0       	ldi	r31, 0x00	; 0
     79a:	27 e0       	ldi	r18, 0x07	; 7
     79c:	01 90       	ld	r0, Z+
     79e:	0d 92       	st	X+, r0
     7a0:	21 50       	subi	r18, 0x01	; 1
     7a2:	e1 f7       	brne	.-8      	; 0x79c <dzwiek+0x138>
     7a4:	de 01       	movw	r26, r28
     7a6:	a9 59       	subi	r26, 0x99	; 153
     7a8:	bf 4f       	sbci	r27, 0xFF	; 255
     7aa:	e6 ec       	ldi	r30, 0xC6	; 198
     7ac:	f0 e0       	ldi	r31, 0x00	; 0
     7ae:	27 e0       	ldi	r18, 0x07	; 7
     7b0:	01 90       	ld	r0, Z+
     7b2:	0d 92       	st	X+, r0
     7b4:	21 50       	subi	r18, 0x01	; 1
     7b6:	e1 f7       	brne	.-8      	; 0x7b0 <dzwiek+0x14c>
     7b8:	de 01       	movw	r26, r28
     7ba:	a2 59       	subi	r26, 0x92	; 146
     7bc:	bf 4f       	sbci	r27, 0xFF	; 255
     7be:	ed ec       	ldi	r30, 0xCD	; 205
     7c0:	f0 e0       	ldi	r31, 0x00	; 0
     7c2:	27 e0       	ldi	r18, 0x07	; 7
     7c4:	01 90       	ld	r0, Z+
     7c6:	0d 92       	st	X+, r0
     7c8:	21 50       	subi	r18, 0x01	; 1
     7ca:	e1 f7       	brne	.-8      	; 0x7c4 <dzwiek+0x160>
     7cc:	de 01       	movw	r26, r28
     7ce:	ab 58       	subi	r26, 0x8B	; 139
     7d0:	bf 4f       	sbci	r27, 0xFF	; 255
     7d2:	e4 ed       	ldi	r30, 0xD4	; 212
     7d4:	f0 e0       	ldi	r31, 0x00	; 0
     7d6:	27 e0       	ldi	r18, 0x07	; 7
     7d8:	01 90       	ld	r0, Z+
     7da:	0d 92       	st	X+, r0
     7dc:	21 50       	subi	r18, 0x01	; 1
     7de:	e1 f7       	brne	.-8      	; 0x7d8 <dzwiek+0x174>
     7e0:	de 01       	movw	r26, r28
     7e2:	a4 58       	subi	r26, 0x84	; 132
     7e4:	bf 4f       	sbci	r27, 0xFF	; 255
     7e6:	eb ed       	ldi	r30, 0xDB	; 219
     7e8:	f0 e0       	ldi	r31, 0x00	; 0
     7ea:	27 e0       	ldi	r18, 0x07	; 7
     7ec:	01 90       	ld	r0, Z+
     7ee:	0d 92       	st	X+, r0
     7f0:	21 50       	subi	r18, 0x01	; 1
     7f2:	e1 f7       	brne	.-8      	; 0x7ec <dzwiek+0x188>
     7f4:	de 01       	movw	r26, r28
     7f6:	ad 57       	subi	r26, 0x7D	; 125
     7f8:	bf 4f       	sbci	r27, 0xFF	; 255
     7fa:	e2 ee       	ldi	r30, 0xE2	; 226
     7fc:	f0 e0       	ldi	r31, 0x00	; 0
     7fe:	27 e0       	ldi	r18, 0x07	; 7
     800:	01 90       	ld	r0, Z+
     802:	0d 92       	st	X+, r0
     804:	21 50       	subi	r18, 0x01	; 1
     806:	e1 f7       	brne	.-8      	; 0x800 <dzwiek+0x19c>
     808:	de 01       	movw	r26, r28
     80a:	a6 57       	subi	r26, 0x76	; 118
     80c:	bf 4f       	sbci	r27, 0xFF	; 255
     80e:	e9 ee       	ldi	r30, 0xE9	; 233
     810:	f0 e0       	ldi	r31, 0x00	; 0
     812:	27 e0       	ldi	r18, 0x07	; 7
     814:	01 90       	ld	r0, Z+
     816:	0d 92       	st	X+, r0
     818:	21 50       	subi	r18, 0x01	; 1
     81a:	e1 f7       	brne	.-8      	; 0x814 <dzwiek+0x1b0>
     81c:	de 01       	movw	r26, r28
     81e:	af 56       	subi	r26, 0x6F	; 111
     820:	bf 4f       	sbci	r27, 0xFF	; 255
     822:	e0 ef       	ldi	r30, 0xF0	; 240
     824:	f0 e0       	ldi	r31, 0x00	; 0
     826:	27 e0       	ldi	r18, 0x07	; 7
     828:	01 90       	ld	r0, Z+
     82a:	0d 92       	st	X+, r0
     82c:	21 50       	subi	r18, 0x01	; 1
     82e:	e1 f7       	brne	.-8      	; 0x828 <dzwiek+0x1c4>
     830:	de 01       	movw	r26, r28
     832:	a8 56       	subi	r26, 0x68	; 104
     834:	bf 4f       	sbci	r27, 0xFF	; 255
     836:	e7 ef       	ldi	r30, 0xF7	; 247
     838:	f0 e0       	ldi	r31, 0x00	; 0
     83a:	27 e0       	ldi	r18, 0x07	; 7
     83c:	01 90       	ld	r0, Z+
     83e:	0d 92       	st	X+, r0
     840:	21 50       	subi	r18, 0x01	; 1
     842:	e1 f7       	brne	.-8      	; 0x83c <dzwiek+0x1d8>
     844:	de 01       	movw	r26, r28
     846:	a1 56       	subi	r26, 0x61	; 97
     848:	bf 4f       	sbci	r27, 0xFF	; 255
     84a:	ee ef       	ldi	r30, 0xFE	; 254
     84c:	f0 e0       	ldi	r31, 0x00	; 0
     84e:	27 e0       	ldi	r18, 0x07	; 7
     850:	01 90       	ld	r0, Z+
     852:	0d 92       	st	X+, r0
     854:	21 50       	subi	r18, 0x01	; 1
     856:	e1 f7       	brne	.-8      	; 0x850 <dzwiek+0x1ec>
     858:	de 01       	movw	r26, r28
     85a:	aa 55       	subi	r26, 0x5A	; 90
     85c:	bf 4f       	sbci	r27, 0xFF	; 255
     85e:	e5 e0       	ldi	r30, 0x05	; 5
     860:	f1 e0       	ldi	r31, 0x01	; 1
     862:	27 e0       	ldi	r18, 0x07	; 7
     864:	01 90       	ld	r0, Z+
     866:	0d 92       	st	X+, r0
     868:	21 50       	subi	r18, 0x01	; 1
     86a:	e1 f7       	brne	.-8      	; 0x864 <__stack+0x5>
     86c:	de 01       	movw	r26, r28
     86e:	a3 55       	subi	r26, 0x53	; 83
     870:	bf 4f       	sbci	r27, 0xFF	; 255
     872:	ec e0       	ldi	r30, 0x0C	; 12
     874:	f1 e0       	ldi	r31, 0x01	; 1
     876:	27 e0       	ldi	r18, 0x07	; 7
     878:	01 90       	ld	r0, Z+
     87a:	0d 92       	st	X+, r0
     87c:	21 50       	subi	r18, 0x01	; 1
     87e:	e1 f7       	brne	.-8      	; 0x878 <__stack+0x19>
     880:	de 01       	movw	r26, r28
     882:	ac 54       	subi	r26, 0x4C	; 76
     884:	bf 4f       	sbci	r27, 0xFF	; 255
     886:	e3 e1       	ldi	r30, 0x13	; 19
     888:	f1 e0       	ldi	r31, 0x01	; 1
     88a:	27 e0       	ldi	r18, 0x07	; 7
     88c:	01 90       	ld	r0, Z+
     88e:	0d 92       	st	X+, r0
     890:	21 50       	subi	r18, 0x01	; 1
     892:	e1 f7       	brne	.-8      	; 0x88c <__stack+0x2d>
     894:	de 01       	movw	r26, r28
     896:	a5 54       	subi	r26, 0x45	; 69
     898:	bf 4f       	sbci	r27, 0xFF	; 255
     89a:	ea e1       	ldi	r30, 0x1A	; 26
     89c:	f1 e0       	ldi	r31, 0x01	; 1
     89e:	27 e0       	ldi	r18, 0x07	; 7
     8a0:	01 90       	ld	r0, Z+
     8a2:	0d 92       	st	X+, r0
     8a4:	21 50       	subi	r18, 0x01	; 1
     8a6:	e1 f7       	brne	.-8      	; 0x8a0 <__stack+0x41>
     8a8:	de 01       	movw	r26, r28
     8aa:	ae 53       	subi	r26, 0x3E	; 62
     8ac:	bf 4f       	sbci	r27, 0xFF	; 255
     8ae:	e1 e2       	ldi	r30, 0x21	; 33
     8b0:	f1 e0       	ldi	r31, 0x01	; 1
     8b2:	27 e0       	ldi	r18, 0x07	; 7
     8b4:	01 90       	ld	r0, Z+
     8b6:	0d 92       	st	X+, r0
     8b8:	21 50       	subi	r18, 0x01	; 1
     8ba:	e1 f7       	brne	.-8      	; 0x8b4 <__stack+0x55>
     8bc:	de 01       	movw	r26, r28
     8be:	a7 53       	subi	r26, 0x37	; 55
     8c0:	bf 4f       	sbci	r27, 0xFF	; 255
     8c2:	e8 e2       	ldi	r30, 0x28	; 40
     8c4:	f1 e0       	ldi	r31, 0x01	; 1
     8c6:	27 e0       	ldi	r18, 0x07	; 7
     8c8:	01 90       	ld	r0, Z+
     8ca:	0d 92       	st	X+, r0
     8cc:	21 50       	subi	r18, 0x01	; 1
     8ce:	e1 f7       	brne	.-8      	; 0x8c8 <__stack+0x69>
     8d0:	de 01       	movw	r26, r28
     8d2:	a0 53       	subi	r26, 0x30	; 48
     8d4:	bf 4f       	sbci	r27, 0xFF	; 255
     8d6:	ef e2       	ldi	r30, 0x2F	; 47
     8d8:	f1 e0       	ldi	r31, 0x01	; 1
     8da:	27 e0       	ldi	r18, 0x07	; 7
     8dc:	01 90       	ld	r0, Z+
     8de:	0d 92       	st	X+, r0
     8e0:	21 50       	subi	r18, 0x01	; 1
     8e2:	e1 f7       	brne	.-8      	; 0x8dc <__stack+0x7d>
     8e4:	de 01       	movw	r26, r28
     8e6:	a9 52       	subi	r26, 0x29	; 41
     8e8:	bf 4f       	sbci	r27, 0xFF	; 255
     8ea:	e6 e3       	ldi	r30, 0x36	; 54
     8ec:	f1 e0       	ldi	r31, 0x01	; 1
     8ee:	27 e0       	ldi	r18, 0x07	; 7
     8f0:	01 90       	ld	r0, Z+
     8f2:	0d 92       	st	X+, r0
     8f4:	21 50       	subi	r18, 0x01	; 1
     8f6:	e1 f7       	brne	.-8      	; 0x8f0 <__stack+0x91>
     8f8:	de 01       	movw	r26, r28
     8fa:	a2 52       	subi	r26, 0x22	; 34
     8fc:	bf 4f       	sbci	r27, 0xFF	; 255
     8fe:	ed e3       	ldi	r30, 0x3D	; 61
     900:	f1 e0       	ldi	r31, 0x01	; 1
     902:	27 e0       	ldi	r18, 0x07	; 7
     904:	01 90       	ld	r0, Z+
     906:	0d 92       	st	X+, r0
     908:	21 50       	subi	r18, 0x01	; 1
     90a:	e1 f7       	brne	.-8      	; 0x904 <__stack+0xa5>
     90c:	de 01       	movw	r26, r28
     90e:	ab 51       	subi	r26, 0x1B	; 27
     910:	bf 4f       	sbci	r27, 0xFF	; 255
     912:	e4 e4       	ldi	r30, 0x44	; 68
     914:	f1 e0       	ldi	r31, 0x01	; 1
     916:	27 e0       	ldi	r18, 0x07	; 7
     918:	01 90       	ld	r0, Z+
     91a:	0d 92       	st	X+, r0
     91c:	21 50       	subi	r18, 0x01	; 1
     91e:	e1 f7       	brne	.-8      	; 0x918 <__stack+0xb9>
     920:	de 01       	movw	r26, r28
     922:	a4 51       	subi	r26, 0x14	; 20
     924:	bf 4f       	sbci	r27, 0xFF	; 255
     926:	eb e4       	ldi	r30, 0x4B	; 75
     928:	f1 e0       	ldi	r31, 0x01	; 1
     92a:	27 e0       	ldi	r18, 0x07	; 7
     92c:	01 90       	ld	r0, Z+
     92e:	0d 92       	st	X+, r0
     930:	21 50       	subi	r18, 0x01	; 1
     932:	e1 f7       	brne	.-8      	; 0x92c <__stack+0xcd>
     934:	de 01       	movw	r26, r28
     936:	ad 50       	subi	r26, 0x0D	; 13
     938:	bf 4f       	sbci	r27, 0xFF	; 255
     93a:	e2 e5       	ldi	r30, 0x52	; 82
     93c:	f1 e0       	ldi	r31, 0x01	; 1
     93e:	27 e0       	ldi	r18, 0x07	; 7
     940:	01 90       	ld	r0, Z+
     942:	0d 92       	st	X+, r0
     944:	21 50       	subi	r18, 0x01	; 1
     946:	e1 f7       	brne	.-8      	; 0x940 <__stack+0xe1>
     948:	de 01       	movw	r26, r28
     94a:	a6 50       	subi	r26, 0x06	; 6
     94c:	bf 4f       	sbci	r27, 0xFF	; 255
     94e:	e9 e5       	ldi	r30, 0x59	; 89
     950:	f1 e0       	ldi	r31, 0x01	; 1
     952:	27 e0       	ldi	r18, 0x07	; 7
     954:	01 90       	ld	r0, Z+
     956:	0d 92       	st	X+, r0
     958:	21 50       	subi	r18, 0x01	; 1
     95a:	e1 f7       	brne	.-8      	; 0x954 <__stack+0xf5>
     95c:	de 01       	movw	r26, r28
     95e:	af 5f       	subi	r26, 0xFF	; 255
     960:	be 4f       	sbci	r27, 0xFE	; 254
     962:	e0 e6       	ldi	r30, 0x60	; 96
     964:	f1 e0       	ldi	r31, 0x01	; 1
     966:	27 e0       	ldi	r18, 0x07	; 7
     968:	01 90       	ld	r0, Z+
     96a:	0d 92       	st	X+, r0
     96c:	21 50       	subi	r18, 0x01	; 1
     96e:	e1 f7       	brne	.-8      	; 0x968 <__stack+0x109>
     970:	de 01       	movw	r26, r28
     972:	a8 5f       	subi	r26, 0xF8	; 248
     974:	be 4f       	sbci	r27, 0xFE	; 254
     976:	e7 e6       	ldi	r30, 0x67	; 103
     978:	f1 e0       	ldi	r31, 0x01	; 1
     97a:	27 e0       	ldi	r18, 0x07	; 7
     97c:	01 90       	ld	r0, Z+
     97e:	0d 92       	st	X+, r0
     980:	21 50       	subi	r18, 0x01	; 1
     982:	e1 f7       	brne	.-8      	; 0x97c <__stack+0x11d>
     984:	de 01       	movw	r26, r28
     986:	a1 5f       	subi	r26, 0xF1	; 241
     988:	be 4f       	sbci	r27, 0xFE	; 254
     98a:	ee e6       	ldi	r30, 0x6E	; 110
     98c:	f1 e0       	ldi	r31, 0x01	; 1
     98e:	27 e0       	ldi	r18, 0x07	; 7
     990:	01 90       	ld	r0, Z+
     992:	0d 92       	st	X+, r0
     994:	21 50       	subi	r18, 0x01	; 1
     996:	e1 f7       	brne	.-8      	; 0x990 <__stack+0x131>
     998:	de 01       	movw	r26, r28
     99a:	aa 5e       	subi	r26, 0xEA	; 234
     99c:	be 4f       	sbci	r27, 0xFE	; 254
     99e:	e5 e7       	ldi	r30, 0x75	; 117
     9a0:	f1 e0       	ldi	r31, 0x01	; 1
     9a2:	27 e0       	ldi	r18, 0x07	; 7
     9a4:	01 90       	ld	r0, Z+
     9a6:	0d 92       	st	X+, r0
     9a8:	21 50       	subi	r18, 0x01	; 1
     9aa:	e1 f7       	brne	.-8      	; 0x9a4 <__stack+0x145>
     9ac:	de 01       	movw	r26, r28
     9ae:	a3 5e       	subi	r26, 0xE3	; 227
     9b0:	be 4f       	sbci	r27, 0xFE	; 254
     9b2:	ec e7       	ldi	r30, 0x7C	; 124
     9b4:	f1 e0       	ldi	r31, 0x01	; 1
     9b6:	27 e0       	ldi	r18, 0x07	; 7
     9b8:	01 90       	ld	r0, Z+
     9ba:	0d 92       	st	X+, r0
     9bc:	21 50       	subi	r18, 0x01	; 1
     9be:	e1 f7       	brne	.-8      	; 0x9b8 <__stack+0x159>
     9c0:	de 01       	movw	r26, r28
     9c2:	ac 5d       	subi	r26, 0xDC	; 220
     9c4:	be 4f       	sbci	r27, 0xFE	; 254
     9c6:	e3 e8       	ldi	r30, 0x83	; 131
     9c8:	f1 e0       	ldi	r31, 0x01	; 1
     9ca:	27 e0       	ldi	r18, 0x07	; 7
     9cc:	01 90       	ld	r0, Z+
     9ce:	0d 92       	st	X+, r0
     9d0:	21 50       	subi	r18, 0x01	; 1
     9d2:	e1 f7       	brne	.-8      	; 0x9cc <__stack+0x16d>
     9d4:	fc 01       	movw	r30, r24
     9d6:	83 33       	cpi	r24, 0x33	; 51
     9d8:	91 05       	cpc	r25, r1
     9da:	08 f0       	brcs	.+2      	; 0x9de <__stack+0x17f>
     9dc:	ae c0       	rjmp	.+348    	; 0xb3a <__stack+0x2db>
     9de:	e6 5d       	subi	r30, 0xD6	; 214
     9e0:	ff 4f       	sbci	r31, 0xFF	; 255
     9e2:	ee 0f       	add	r30, r30
     9e4:	ff 1f       	adc	r31, r31
     9e6:	05 90       	lpm	r0, Z+
     9e8:	f4 91       	lpm	r31, Z+
     9ea:	e0 2d       	mov	r30, r0
     9ec:	09 94       	ijmp
     9ee:	ce 01       	movw	r24, r28
     9f0:	01 96       	adiw	r24, 0x01	; 1
     9f2:	a1 c0       	rjmp	.+322    	; 0xb36 <__stack+0x2d7>
     9f4:	ce 01       	movw	r24, r28
     9f6:	07 96       	adiw	r24, 0x07	; 7
     9f8:	9e c0       	rjmp	.+316    	; 0xb36 <__stack+0x2d7>
     9fa:	ce 01       	movw	r24, r28
     9fc:	0d 96       	adiw	r24, 0x0d	; 13
     9fe:	9b c0       	rjmp	.+310    	; 0xb36 <__stack+0x2d7>
     a00:	ce 01       	movw	r24, r28
     a02:	43 96       	adiw	r24, 0x13	; 19
     a04:	98 c0       	rjmp	.+304    	; 0xb36 <__stack+0x2d7>
     a06:	ce 01       	movw	r24, r28
     a08:	49 96       	adiw	r24, 0x19	; 25
     a0a:	95 c0       	rjmp	.+298    	; 0xb36 <__stack+0x2d7>
     a0c:	ce 01       	movw	r24, r28
     a0e:	4f 96       	adiw	r24, 0x1f	; 31
     a10:	92 c0       	rjmp	.+292    	; 0xb36 <__stack+0x2d7>
     a12:	ce 01       	movw	r24, r28
     a14:	85 96       	adiw	r24, 0x25	; 37
     a16:	8f c0       	rjmp	.+286    	; 0xb36 <__stack+0x2d7>
     a18:	ce 01       	movw	r24, r28
     a1a:	8b 96       	adiw	r24, 0x2b	; 43
     a1c:	8c c0       	rjmp	.+280    	; 0xb36 <__stack+0x2d7>
     a1e:	ce 01       	movw	r24, r28
     a20:	c1 96       	adiw	r24, 0x31	; 49
     a22:	89 c0       	rjmp	.+274    	; 0xb36 <__stack+0x2d7>
     a24:	ce 01       	movw	r24, r28
     a26:	c7 96       	adiw	r24, 0x37	; 55
     a28:	86 c0       	rjmp	.+268    	; 0xb36 <__stack+0x2d7>
     a2a:	ce 01       	movw	r24, r28
     a2c:	cd 96       	adiw	r24, 0x3d	; 61
     a2e:	83 c0       	rjmp	.+262    	; 0xb36 <__stack+0x2d7>
     a30:	ce 01       	movw	r24, r28
     a32:	8c 5b       	subi	r24, 0xBC	; 188
     a34:	9f 4f       	sbci	r25, 0xFF	; 255
     a36:	7f c0       	rjmp	.+254    	; 0xb36 <__stack+0x2d7>
     a38:	ce 01       	movw	r24, r28
     a3a:	85 5b       	subi	r24, 0xB5	; 181
     a3c:	9f 4f       	sbci	r25, 0xFF	; 255
     a3e:	7b c0       	rjmp	.+246    	; 0xb36 <__stack+0x2d7>
     a40:	ce 01       	movw	r24, r28
     a42:	8e 5a       	subi	r24, 0xAE	; 174
     a44:	9f 4f       	sbci	r25, 0xFF	; 255
     a46:	77 c0       	rjmp	.+238    	; 0xb36 <__stack+0x2d7>
     a48:	ce 01       	movw	r24, r28
     a4a:	87 5a       	subi	r24, 0xA7	; 167
     a4c:	9f 4f       	sbci	r25, 0xFF	; 255
     a4e:	73 c0       	rjmp	.+230    	; 0xb36 <__stack+0x2d7>
     a50:	ce 01       	movw	r24, r28
     a52:	80 5a       	subi	r24, 0xA0	; 160
     a54:	9f 4f       	sbci	r25, 0xFF	; 255
     a56:	6f c0       	rjmp	.+222    	; 0xb36 <__stack+0x2d7>
     a58:	ce 01       	movw	r24, r28
     a5a:	89 59       	subi	r24, 0x99	; 153
     a5c:	9f 4f       	sbci	r25, 0xFF	; 255
     a5e:	6b c0       	rjmp	.+214    	; 0xb36 <__stack+0x2d7>
     a60:	ce 01       	movw	r24, r28
     a62:	82 59       	subi	r24, 0x92	; 146
     a64:	9f 4f       	sbci	r25, 0xFF	; 255
     a66:	67 c0       	rjmp	.+206    	; 0xb36 <__stack+0x2d7>
     a68:	ce 01       	movw	r24, r28
     a6a:	8b 58       	subi	r24, 0x8B	; 139
     a6c:	9f 4f       	sbci	r25, 0xFF	; 255
     a6e:	63 c0       	rjmp	.+198    	; 0xb36 <__stack+0x2d7>
     a70:	ce 01       	movw	r24, r28
     a72:	84 58       	subi	r24, 0x84	; 132
     a74:	9f 4f       	sbci	r25, 0xFF	; 255
     a76:	5f c0       	rjmp	.+190    	; 0xb36 <__stack+0x2d7>
     a78:	ce 01       	movw	r24, r28
     a7a:	8d 57       	subi	r24, 0x7D	; 125
     a7c:	9f 4f       	sbci	r25, 0xFF	; 255
     a7e:	5b c0       	rjmp	.+182    	; 0xb36 <__stack+0x2d7>
     a80:	ce 01       	movw	r24, r28
     a82:	86 57       	subi	r24, 0x76	; 118
     a84:	9f 4f       	sbci	r25, 0xFF	; 255
     a86:	57 c0       	rjmp	.+174    	; 0xb36 <__stack+0x2d7>
     a88:	ce 01       	movw	r24, r28
     a8a:	8f 56       	subi	r24, 0x6F	; 111
     a8c:	9f 4f       	sbci	r25, 0xFF	; 255
     a8e:	53 c0       	rjmp	.+166    	; 0xb36 <__stack+0x2d7>
     a90:	ce 01       	movw	r24, r28
     a92:	88 56       	subi	r24, 0x68	; 104
     a94:	9f 4f       	sbci	r25, 0xFF	; 255
     a96:	4f c0       	rjmp	.+158    	; 0xb36 <__stack+0x2d7>
     a98:	ce 01       	movw	r24, r28
     a9a:	81 56       	subi	r24, 0x61	; 97
     a9c:	9f 4f       	sbci	r25, 0xFF	; 255
     a9e:	4b c0       	rjmp	.+150    	; 0xb36 <__stack+0x2d7>
     aa0:	ce 01       	movw	r24, r28
     aa2:	8a 55       	subi	r24, 0x5A	; 90
     aa4:	9f 4f       	sbci	r25, 0xFF	; 255
     aa6:	47 c0       	rjmp	.+142    	; 0xb36 <__stack+0x2d7>
     aa8:	ce 01       	movw	r24, r28
     aaa:	83 55       	subi	r24, 0x53	; 83
     aac:	9f 4f       	sbci	r25, 0xFF	; 255
     aae:	43 c0       	rjmp	.+134    	; 0xb36 <__stack+0x2d7>
     ab0:	ce 01       	movw	r24, r28
     ab2:	8c 54       	subi	r24, 0x4C	; 76
     ab4:	9f 4f       	sbci	r25, 0xFF	; 255
     ab6:	3f c0       	rjmp	.+126    	; 0xb36 <__stack+0x2d7>
     ab8:	ce 01       	movw	r24, r28
     aba:	85 54       	subi	r24, 0x45	; 69
     abc:	9f 4f       	sbci	r25, 0xFF	; 255
     abe:	3b c0       	rjmp	.+118    	; 0xb36 <__stack+0x2d7>
     ac0:	ce 01       	movw	r24, r28
     ac2:	8e 53       	subi	r24, 0x3E	; 62
     ac4:	9f 4f       	sbci	r25, 0xFF	; 255
     ac6:	37 c0       	rjmp	.+110    	; 0xb36 <__stack+0x2d7>
     ac8:	ce 01       	movw	r24, r28
     aca:	87 53       	subi	r24, 0x37	; 55
     acc:	9f 4f       	sbci	r25, 0xFF	; 255
     ace:	33 c0       	rjmp	.+102    	; 0xb36 <__stack+0x2d7>
     ad0:	ce 01       	movw	r24, r28
     ad2:	80 53       	subi	r24, 0x30	; 48
     ad4:	9f 4f       	sbci	r25, 0xFF	; 255
     ad6:	2f c0       	rjmp	.+94     	; 0xb36 <__stack+0x2d7>
     ad8:	ce 01       	movw	r24, r28
     ada:	89 52       	subi	r24, 0x29	; 41
     adc:	9f 4f       	sbci	r25, 0xFF	; 255
     ade:	2b c0       	rjmp	.+86     	; 0xb36 <__stack+0x2d7>
     ae0:	ce 01       	movw	r24, r28
     ae2:	82 52       	subi	r24, 0x22	; 34
     ae4:	9f 4f       	sbci	r25, 0xFF	; 255
     ae6:	27 c0       	rjmp	.+78     	; 0xb36 <__stack+0x2d7>
     ae8:	ce 01       	movw	r24, r28
     aea:	8b 51       	subi	r24, 0x1B	; 27
     aec:	9f 4f       	sbci	r25, 0xFF	; 255
     aee:	23 c0       	rjmp	.+70     	; 0xb36 <__stack+0x2d7>
     af0:	ce 01       	movw	r24, r28
     af2:	84 51       	subi	r24, 0x14	; 20
     af4:	9f 4f       	sbci	r25, 0xFF	; 255
     af6:	1f c0       	rjmp	.+62     	; 0xb36 <__stack+0x2d7>
     af8:	ce 01       	movw	r24, r28
     afa:	8d 50       	subi	r24, 0x0D	; 13
     afc:	9f 4f       	sbci	r25, 0xFF	; 255
     afe:	1b c0       	rjmp	.+54     	; 0xb36 <__stack+0x2d7>
     b00:	ce 01       	movw	r24, r28
     b02:	86 50       	subi	r24, 0x06	; 6
     b04:	9f 4f       	sbci	r25, 0xFF	; 255
     b06:	17 c0       	rjmp	.+46     	; 0xb36 <__stack+0x2d7>
     b08:	ce 01       	movw	r24, r28
     b0a:	8f 5f       	subi	r24, 0xFF	; 255
     b0c:	9e 4f       	sbci	r25, 0xFE	; 254
     b0e:	13 c0       	rjmp	.+38     	; 0xb36 <__stack+0x2d7>
     b10:	ce 01       	movw	r24, r28
     b12:	88 5f       	subi	r24, 0xF8	; 248
     b14:	9e 4f       	sbci	r25, 0xFE	; 254
     b16:	0f c0       	rjmp	.+30     	; 0xb36 <__stack+0x2d7>
     b18:	ce 01       	movw	r24, r28
     b1a:	81 5f       	subi	r24, 0xF1	; 241
     b1c:	9e 4f       	sbci	r25, 0xFE	; 254
     b1e:	0b c0       	rjmp	.+22     	; 0xb36 <__stack+0x2d7>
     b20:	ce 01       	movw	r24, r28
     b22:	8a 5e       	subi	r24, 0xEA	; 234
     b24:	9e 4f       	sbci	r25, 0xFE	; 254
     b26:	07 c0       	rjmp	.+14     	; 0xb36 <__stack+0x2d7>
     b28:	ce 01       	movw	r24, r28
     b2a:	83 5e       	subi	r24, 0xE3	; 227
     b2c:	9e 4f       	sbci	r25, 0xFE	; 254
     b2e:	03 c0       	rjmp	.+6      	; 0xb36 <__stack+0x2d7>
     b30:	ce 01       	movw	r24, r28
     b32:	8c 5d       	subi	r24, 0xDC	; 220
     b34:	9e 4f       	sbci	r25, 0xFE	; 254
     b36:	0e 94 94 01 	call	0x328	; 0x328 <play>
     b3a:	c6 5d       	subi	r28, 0xD6	; 214
     b3c:	de 4f       	sbci	r29, 0xFE	; 254
     b3e:	0f b6       	in	r0, 0x3f	; 63
     b40:	f8 94       	cli
     b42:	de bf       	out	0x3e, r29	; 62
     b44:	0f be       	out	0x3f, r0	; 63
     b46:	cd bf       	out	0x3d, r28	; 61
     b48:	cf 91       	pop	r28
     b4a:	df 91       	pop	r29
     b4c:	08 95       	ret

00000b4e <komunikat_glosowy>:
     b4e:	1f 93       	push	r17
     b50:	18 2f       	mov	r17, r24
     b52:	87 e6       	ldi	r24, 0x67	; 103
     b54:	96 e0       	ldi	r25, 0x06	; 6
     b56:	0e 94 64 10 	call	0x20c8	; 0x20c8 <pf_mount>
     b5a:	88 eb       	ldi	r24, 0xB8	; 184
     b5c:	9b e0       	ldi	r25, 0x0B	; 11
     b5e:	20 e9       	ldi	r18, 0x90	; 144
     b60:	31 e0       	ldi	r19, 0x01	; 1
     b62:	f9 01       	movw	r30, r18
     b64:	31 97       	sbiw	r30, 0x01	; 1
     b66:	f1 f7       	brne	.-4      	; 0xb64 <komunikat_glosowy+0x16>
     b68:	01 97       	sbiw	r24, 0x01	; 1
     b6a:	d9 f7       	brne	.-10     	; 0xb62 <komunikat_glosowy+0x14>
     b6c:	81 2f       	mov	r24, r17
     b6e:	90 e0       	ldi	r25, 0x00	; 0
     b70:	0e 94 32 03 	call	0x664	; 0x664 <dzwiek>
     b74:	0e 94 94 01 	call	0x328	; 0x328 <play>
     b78:	1f 91       	pop	r17
     b7a:	08 95       	ret

00000b7c <send_cmd>:
     b7c:	df 92       	push	r13
     b7e:	ef 92       	push	r14
     b80:	ff 92       	push	r15
     b82:	0f 93       	push	r16
     b84:	1f 93       	push	r17
     b86:	d8 2e       	mov	r13, r24
     b88:	7a 01       	movw	r14, r20
     b8a:	8b 01       	movw	r16, r22
     b8c:	87 ff       	sbrs	r24, 7
     b8e:	0c c0       	rjmp	.+24     	; 0xba8 <send_cmd+0x2c>
     b90:	87 e7       	ldi	r24, 0x77	; 119
     b92:	40 e0       	ldi	r20, 0x00	; 0
     b94:	50 e0       	ldi	r21, 0x00	; 0
     b96:	60 e0       	ldi	r22, 0x00	; 0
     b98:	70 e0       	ldi	r23, 0x00	; 0
     b9a:	0e 94 be 05 	call	0xb7c	; 0xb7c <send_cmd>
     b9e:	82 30       	cpi	r24, 0x02	; 2
     ba0:	08 f0       	brcs	.+2      	; 0xba4 <send_cmd+0x28>
     ba2:	40 c0       	rjmp	.+128    	; 0xc24 <send_cmd+0xa8>
     ba4:	8f e7       	ldi	r24, 0x7F	; 127
     ba6:	d8 22       	and	r13, r24
     ba8:	c4 9a       	sbi	0x18, 4	; 24
     baa:	8f ef       	ldi	r24, 0xFF	; 255
     bac:	8f b9       	out	0x0f, r24	; 15
     bae:	77 9b       	sbis	0x0e, 7	; 14
     bb0:	fe cf       	rjmp	.-4      	; 0xbae <send_cmd+0x32>
     bb2:	8f b1       	in	r24, 0x0f	; 15
     bb4:	c4 98       	cbi	0x18, 4	; 24
     bb6:	8f ef       	ldi	r24, 0xFF	; 255
     bb8:	8f b9       	out	0x0f, r24	; 15
     bba:	77 9b       	sbis	0x0e, 7	; 14
     bbc:	fe cf       	rjmp	.-4      	; 0xbba <send_cmd+0x3e>
     bbe:	8f b1       	in	r24, 0x0f	; 15
     bc0:	df b8       	out	0x0f, r13	; 15
     bc2:	77 9b       	sbis	0x0e, 7	; 14
     bc4:	fe cf       	rjmp	.-4      	; 0xbc2 <send_cmd+0x46>
     bc6:	81 2f       	mov	r24, r17
     bc8:	99 27       	eor	r25, r25
     bca:	aa 27       	eor	r26, r26
     bcc:	bb 27       	eor	r27, r27
     bce:	8f b9       	out	0x0f, r24	; 15
     bd0:	77 9b       	sbis	0x0e, 7	; 14
     bd2:	fe cf       	rjmp	.-4      	; 0xbd0 <send_cmd+0x54>
     bd4:	c8 01       	movw	r24, r16
     bd6:	aa 27       	eor	r26, r26
     bd8:	bb 27       	eor	r27, r27
     bda:	8f b9       	out	0x0f, r24	; 15
     bdc:	77 9b       	sbis	0x0e, 7	; 14
     bde:	fe cf       	rjmp	.-4      	; 0xbdc <send_cmd+0x60>
     be0:	bb 27       	eor	r27, r27
     be2:	a1 2f       	mov	r26, r17
     be4:	90 2f       	mov	r25, r16
     be6:	8f 2d       	mov	r24, r15
     be8:	8f b9       	out	0x0f, r24	; 15
     bea:	77 9b       	sbis	0x0e, 7	; 14
     bec:	fe cf       	rjmp	.-4      	; 0xbea <send_cmd+0x6e>
     bee:	ef b8       	out	0x0f, r14	; 15
     bf0:	77 9b       	sbis	0x0e, 7	; 14
     bf2:	fe cf       	rjmp	.-4      	; 0xbf0 <send_cmd+0x74>
     bf4:	80 e4       	ldi	r24, 0x40	; 64
     bf6:	d8 16       	cp	r13, r24
     bf8:	11 f4       	brne	.+4      	; 0xbfe <send_cmd+0x82>
     bfa:	85 e9       	ldi	r24, 0x95	; 149
     bfc:	06 c0       	rjmp	.+12     	; 0xc0a <send_cmd+0x8e>
     bfe:	88 e4       	ldi	r24, 0x48	; 72
     c00:	d8 16       	cp	r13, r24
     c02:	11 f4       	brne	.+4      	; 0xc08 <send_cmd+0x8c>
     c04:	87 e8       	ldi	r24, 0x87	; 135
     c06:	01 c0       	rjmp	.+2      	; 0xc0a <send_cmd+0x8e>
     c08:	81 e0       	ldi	r24, 0x01	; 1
     c0a:	8f b9       	out	0x0f, r24	; 15
     c0c:	77 9b       	sbis	0x0e, 7	; 14
     c0e:	fe cf       	rjmp	.-4      	; 0xc0c <send_cmd+0x90>
     c10:	9a e0       	ldi	r25, 0x0A	; 10
     c12:	2f ef       	ldi	r18, 0xFF	; 255
     c14:	2f b9       	out	0x0f, r18	; 15
     c16:	77 9b       	sbis	0x0e, 7	; 14
     c18:	fe cf       	rjmp	.-4      	; 0xc16 <send_cmd+0x9a>
     c1a:	8f b1       	in	r24, 0x0f	; 15
     c1c:	87 ff       	sbrs	r24, 7
     c1e:	02 c0       	rjmp	.+4      	; 0xc24 <send_cmd+0xa8>
     c20:	91 50       	subi	r25, 0x01	; 1
     c22:	c1 f7       	brne	.-16     	; 0xc14 <send_cmd+0x98>
     c24:	1f 91       	pop	r17
     c26:	0f 91       	pop	r16
     c28:	ff 90       	pop	r15
     c2a:	ef 90       	pop	r14
     c2c:	df 90       	pop	r13
     c2e:	08 95       	ret

00000c30 <disk_readp>:
     c30:	ef 92       	push	r14
     c32:	ff 92       	push	r15
     c34:	0f 93       	push	r16
     c36:	1f 93       	push	r17
     c38:	cf 93       	push	r28
     c3a:	df 93       	push	r29
     c3c:	7c 01       	movw	r14, r24
     c3e:	e9 01       	movw	r28, r18
     c40:	80 91 1d 02 	lds	r24, 0x021D
     c44:	83 fd       	sbrc	r24, 3
     c46:	07 c0       	rjmp	.+14     	; 0xc56 <disk_readp+0x26>
     c48:	39 e0       	ldi	r19, 0x09	; 9
     c4a:	44 0f       	add	r20, r20
     c4c:	55 1f       	adc	r21, r21
     c4e:	66 1f       	adc	r22, r22
     c50:	77 1f       	adc	r23, r23
     c52:	3a 95       	dec	r19
     c54:	d1 f7       	brne	.-12     	; 0xc4a <disk_readp+0x1a>
     c56:	81 e5       	ldi	r24, 0x51	; 81
     c58:	0e 94 be 05 	call	0xb7c	; 0xb7c <send_cmd>
     c5c:	88 23       	and	r24, r24
     c5e:	09 f0       	breq	.+2      	; 0xc62 <disk_readp+0x32>
     c60:	3a c0       	rjmp	.+116    	; 0xcd6 <disk_readp+0xa6>
     c62:	80 e3       	ldi	r24, 0x30	; 48
     c64:	95 e7       	ldi	r25, 0x75	; 117
     c66:	3f ef       	ldi	r19, 0xFF	; 255
     c68:	3f b9       	out	0x0f, r19	; 15
     c6a:	77 9b       	sbis	0x0e, 7	; 14
     c6c:	fe cf       	rjmp	.-4      	; 0xc6a <disk_readp+0x3a>
     c6e:	2f b1       	in	r18, 0x0f	; 15
     c70:	2f 3f       	cpi	r18, 0xFF	; 255
     c72:	19 f4       	brne	.+6      	; 0xc7a <disk_readp+0x4a>
     c74:	01 97       	sbiw	r24, 0x01	; 1
     c76:	c1 f7       	brne	.-16     	; 0xc68 <disk_readp+0x38>
     c78:	2e c0       	rjmp	.+92     	; 0xcd6 <disk_readp+0xa6>
     c7a:	2e 3f       	cpi	r18, 0xFE	; 254
     c7c:	61 f5       	brne	.+88     	; 0xcd6 <disk_readp+0xa6>
     c7e:	22 27       	eor	r18, r18
     c80:	33 27       	eor	r19, r19
     c82:	2c 1b       	sub	r18, r28
     c84:	3d 0b       	sbc	r19, r29
     c86:	2e 5f       	subi	r18, 0xFE	; 254
     c88:	3d 4f       	sbci	r19, 0xFD	; 253
     c8a:	20 1b       	sub	r18, r16
     c8c:	31 0b       	sbc	r19, r17
     c8e:	20 97       	sbiw	r28, 0x00	; 0
     c90:	39 f0       	breq	.+14     	; 0xca0 <disk_readp+0x70>
     c92:	8f ef       	ldi	r24, 0xFF	; 255
     c94:	8f b9       	out	0x0f, r24	; 15
     c96:	77 9b       	sbis	0x0e, 7	; 14
     c98:	fe cf       	rjmp	.-4      	; 0xc96 <disk_readp+0x66>
     c9a:	9f b1       	in	r25, 0x0f	; 15
     c9c:	21 97       	sbiw	r28, 0x01	; 1
     c9e:	d1 f7       	brne	.-12     	; 0xc94 <disk_readp+0x64>
     ca0:	e1 14       	cp	r14, r1
     ca2:	f1 04       	cpc	r15, r1
     ca4:	71 f0       	breq	.+28     	; 0xcc2 <disk_readp+0x92>
     ca6:	9f ef       	ldi	r25, 0xFF	; 255
     ca8:	9f b9       	out	0x0f, r25	; 15
     caa:	77 9b       	sbis	0x0e, 7	; 14
     cac:	fe cf       	rjmp	.-4      	; 0xcaa <disk_readp+0x7a>
     cae:	8f b1       	in	r24, 0x0f	; 15
     cb0:	f7 01       	movw	r30, r14
     cb2:	80 83       	st	Z, r24
     cb4:	01 50       	subi	r16, 0x01	; 1
     cb6:	10 40       	sbci	r17, 0x00	; 0
     cb8:	21 f0       	breq	.+8      	; 0xcc2 <disk_readp+0x92>
     cba:	08 94       	sec
     cbc:	e1 1c       	adc	r14, r1
     cbe:	f1 1c       	adc	r15, r1
     cc0:	f3 cf       	rjmp	.-26     	; 0xca8 <disk_readp+0x78>
     cc2:	8f ef       	ldi	r24, 0xFF	; 255
     cc4:	8f b9       	out	0x0f, r24	; 15
     cc6:	77 9b       	sbis	0x0e, 7	; 14
     cc8:	fe cf       	rjmp	.-4      	; 0xcc6 <disk_readp+0x96>
     cca:	9f b1       	in	r25, 0x0f	; 15
     ccc:	21 50       	subi	r18, 0x01	; 1
     cce:	30 40       	sbci	r19, 0x00	; 0
     cd0:	c9 f7       	brne	.-14     	; 0xcc4 <disk_readp+0x94>
     cd2:	90 e0       	ldi	r25, 0x00	; 0
     cd4:	01 c0       	rjmp	.+2      	; 0xcd8 <disk_readp+0xa8>
     cd6:	91 e0       	ldi	r25, 0x01	; 1
     cd8:	c4 9a       	sbi	0x18, 4	; 24
     cda:	8f ef       	ldi	r24, 0xFF	; 255
     cdc:	8f b9       	out	0x0f, r24	; 15
     cde:	77 9b       	sbis	0x0e, 7	; 14
     ce0:	fe cf       	rjmp	.-4      	; 0xcde <disk_readp+0xae>
     ce2:	8f b1       	in	r24, 0x0f	; 15
     ce4:	89 2f       	mov	r24, r25
     ce6:	df 91       	pop	r29
     ce8:	cf 91       	pop	r28
     cea:	1f 91       	pop	r17
     cec:	0f 91       	pop	r16
     cee:	ff 90       	pop	r15
     cf0:	ef 90       	pop	r14
     cf2:	08 95       	ret

00000cf4 <disk_writep>:
     cf4:	fc 01       	movw	r30, r24
     cf6:	00 97       	sbiw	r24, 0x00	; 0
     cf8:	f9 f0       	breq	.+62     	; 0xd38 <disk_writep+0x44>
     cfa:	20 91 1b 02 	lds	r18, 0x021B
     cfe:	30 91 1c 02 	lds	r19, 0x021C
     d02:	09 c0       	rjmp	.+18     	; 0xd16 <disk_writep+0x22>
     d04:	80 81       	ld	r24, Z
     d06:	8f b9       	out	0x0f, r24	; 15
     d08:	77 9b       	sbis	0x0e, 7	; 14
     d0a:	fe cf       	rjmp	.-4      	; 0xd08 <disk_writep+0x14>
     d0c:	31 96       	adiw	r30, 0x01	; 1
     d0e:	41 50       	subi	r20, 0x01	; 1
     d10:	50 40       	sbci	r21, 0x00	; 0
     d12:	21 50       	subi	r18, 0x01	; 1
     d14:	30 40       	sbci	r19, 0x00	; 0
     d16:	41 15       	cp	r20, r1
     d18:	51 05       	cpc	r21, r1
     d1a:	29 f4       	brne	.+10     	; 0xd26 <disk_writep+0x32>
     d1c:	30 93 1c 02 	sts	0x021C, r19
     d20:	20 93 1b 02 	sts	0x021B, r18
     d24:	07 c0       	rjmp	.+14     	; 0xd34 <disk_writep+0x40>
     d26:	21 15       	cp	r18, r1
     d28:	31 05       	cpc	r19, r1
     d2a:	61 f7       	brne	.-40     	; 0xd04 <disk_writep+0x10>
     d2c:	10 92 1c 02 	sts	0x021C, r1
     d30:	10 92 1b 02 	sts	0x021B, r1
     d34:	90 e0       	ldi	r25, 0x00	; 0
     d36:	54 c0       	rjmp	.+168    	; 0xde0 <disk_writep+0xec>
     d38:	41 15       	cp	r20, r1
     d3a:	51 05       	cpc	r21, r1
     d3c:	61 05       	cpc	r22, r1
     d3e:	71 05       	cpc	r23, r1
     d40:	09 f1       	breq	.+66     	; 0xd84 <disk_writep+0x90>
     d42:	80 91 1d 02 	lds	r24, 0x021D
     d46:	83 fd       	sbrc	r24, 3
     d48:	07 c0       	rjmp	.+14     	; 0xd58 <disk_writep+0x64>
     d4a:	e9 e0       	ldi	r30, 0x09	; 9
     d4c:	44 0f       	add	r20, r20
     d4e:	55 1f       	adc	r21, r21
     d50:	66 1f       	adc	r22, r22
     d52:	77 1f       	adc	r23, r23
     d54:	ea 95       	dec	r30
     d56:	d1 f7       	brne	.-12     	; 0xd4c <disk_writep+0x58>
     d58:	88 e5       	ldi	r24, 0x58	; 88
     d5a:	0e 94 be 05 	call	0xb7c	; 0xb7c <send_cmd>
     d5e:	88 23       	and	r24, r24
     d60:	11 f0       	breq	.+4      	; 0xd66 <disk_writep+0x72>
     d62:	91 e0       	ldi	r25, 0x01	; 1
     d64:	3d c0       	rjmp	.+122    	; 0xde0 <disk_writep+0xec>
     d66:	8f ef       	ldi	r24, 0xFF	; 255
     d68:	8f b9       	out	0x0f, r24	; 15
     d6a:	77 9b       	sbis	0x0e, 7	; 14
     d6c:	fe cf       	rjmp	.-4      	; 0xd6a <disk_writep+0x76>
     d6e:	8e ef       	ldi	r24, 0xFE	; 254
     d70:	8f b9       	out	0x0f, r24	; 15
     d72:	77 9b       	sbis	0x0e, 7	; 14
     d74:	fe cf       	rjmp	.-4      	; 0xd72 <disk_writep+0x7e>
     d76:	80 e0       	ldi	r24, 0x00	; 0
     d78:	92 e0       	ldi	r25, 0x02	; 2
     d7a:	90 93 1c 02 	sts	0x021C, r25
     d7e:	80 93 1b 02 	sts	0x021B, r24
     d82:	d8 cf       	rjmp	.-80     	; 0xd34 <disk_writep+0x40>
     d84:	80 91 1b 02 	lds	r24, 0x021B
     d88:	90 91 1c 02 	lds	r25, 0x021C
     d8c:	02 96       	adiw	r24, 0x02	; 2
     d8e:	02 c0       	rjmp	.+4      	; 0xd94 <disk_writep+0xa0>
     d90:	1f b8       	out	0x0f, r1	; 15
     d92:	01 97       	sbiw	r24, 0x01	; 1
     d94:	00 97       	sbiw	r24, 0x00	; 0
     d96:	e1 f7       	brne	.-8      	; 0xd90 <disk_writep+0x9c>
     d98:	77 9b       	sbis	0x0e, 7	; 14
     d9a:	fe cf       	rjmp	.-4      	; 0xd98 <disk_writep+0xa4>
     d9c:	8f ef       	ldi	r24, 0xFF	; 255
     d9e:	8f b9       	out	0x0f, r24	; 15
     da0:	77 9b       	sbis	0x0e, 7	; 14
     da2:	fe cf       	rjmp	.-4      	; 0xda0 <disk_writep+0xac>
     da4:	8f b1       	in	r24, 0x0f	; 15
     da6:	8f 71       	andi	r24, 0x1F	; 31
     da8:	85 30       	cpi	r24, 0x05	; 5
     daa:	99 f4       	brne	.+38     	; 0xdd2 <disk_writep+0xde>
     dac:	28 ee       	ldi	r18, 0xE8	; 232
     dae:	3d ef       	ldi	r19, 0xFD	; 253
     db0:	9f ef       	ldi	r25, 0xFF	; 255
     db2:	02 c0       	rjmp	.+4      	; 0xdb8 <disk_writep+0xc4>
     db4:	21 50       	subi	r18, 0x01	; 1
     db6:	30 40       	sbci	r19, 0x00	; 0
     db8:	9f b9       	out	0x0f, r25	; 15
     dba:	77 9b       	sbis	0x0e, 7	; 14
     dbc:	fe cf       	rjmp	.-4      	; 0xdba <disk_writep+0xc6>
     dbe:	8f b1       	in	r24, 0x0f	; 15
     dc0:	8f 3f       	cpi	r24, 0xFF	; 255
     dc2:	21 f0       	breq	.+8      	; 0xdcc <disk_writep+0xd8>
     dc4:	21 15       	cp	r18, r1
     dc6:	31 05       	cpc	r19, r1
     dc8:	a9 f7       	brne	.-22     	; 0xdb4 <disk_writep+0xc0>
     dca:	03 c0       	rjmp	.+6      	; 0xdd2 <disk_writep+0xde>
     dcc:	90 e0       	ldi	r25, 0x00	; 0
     dce:	23 2b       	or	r18, r19
     dd0:	09 f4       	brne	.+2      	; 0xdd4 <disk_writep+0xe0>
     dd2:	91 e0       	ldi	r25, 0x01	; 1
     dd4:	c4 9a       	sbi	0x18, 4	; 24
     dd6:	8f ef       	ldi	r24, 0xFF	; 255
     dd8:	8f b9       	out	0x0f, r24	; 15
     dda:	77 9b       	sbis	0x0e, 7	; 14
     ddc:	fe cf       	rjmp	.-4      	; 0xdda <disk_writep+0xe6>
     dde:	8f b1       	in	r24, 0x0f	; 15
     de0:	89 2f       	mov	r24, r25
     de2:	08 95       	ret

00000de4 <disk_initialize>:
     de4:	cf 92       	push	r12
     de6:	df 92       	push	r13
     de8:	ef 92       	push	r14
     dea:	ff 92       	push	r15
     dec:	0f 93       	push	r16
     dee:	1f 93       	push	r17
     df0:	df 93       	push	r29
     df2:	cf 93       	push	r28
     df4:	00 d0       	rcall	.+0      	; 0xdf6 <disk_initialize+0x12>
     df6:	00 d0       	rcall	.+0      	; 0xdf8 <disk_initialize+0x14>
     df8:	cd b7       	in	r28, 0x3d	; 61
     dfa:	de b7       	in	r29, 0x3e	; 62
     dfc:	c4 99       	sbic	0x18, 4	; 24
     dfe:	08 c0       	rjmp	.+16     	; 0xe10 <disk_initialize+0x2c>
     e00:	80 e0       	ldi	r24, 0x00	; 0
     e02:	90 e0       	ldi	r25, 0x00	; 0
     e04:	40 e0       	ldi	r20, 0x00	; 0
     e06:	50 e0       	ldi	r21, 0x00	; 0
     e08:	60 e0       	ldi	r22, 0x00	; 0
     e0a:	70 e0       	ldi	r23, 0x00	; 0
     e0c:	0e 94 7a 06 	call	0xcf4	; 0xcf4 <disk_writep>
     e10:	84 e6       	ldi	r24, 0x64	; 100
     e12:	9f ef       	ldi	r25, 0xFF	; 255
     e14:	9f b9       	out	0x0f, r25	; 15
     e16:	77 9b       	sbis	0x0e, 7	; 14
     e18:	fe cf       	rjmp	.-4      	; 0xe16 <disk_initialize+0x32>
     e1a:	2f b1       	in	r18, 0x0f	; 15
     e1c:	81 50       	subi	r24, 0x01	; 1
     e1e:	d1 f7       	brne	.-12     	; 0xe14 <disk_initialize+0x30>
     e20:	80 e4       	ldi	r24, 0x40	; 64
     e22:	40 e0       	ldi	r20, 0x00	; 0
     e24:	50 e0       	ldi	r21, 0x00	; 0
     e26:	60 e0       	ldi	r22, 0x00	; 0
     e28:	70 e0       	ldi	r23, 0x00	; 0
     e2a:	0e 94 be 05 	call	0xb7c	; 0xb7c <send_cmd>
     e2e:	81 30       	cpi	r24, 0x01	; 1
     e30:	09 f0       	breq	.+2      	; 0xe34 <disk_initialize+0x50>
     e32:	6c c0       	rjmp	.+216    	; 0xf0c <disk_initialize+0x128>
     e34:	88 e4       	ldi	r24, 0x48	; 72
     e36:	4a ea       	ldi	r20, 0xAA	; 170
     e38:	51 e0       	ldi	r21, 0x01	; 1
     e3a:	60 e0       	ldi	r22, 0x00	; 0
     e3c:	70 e0       	ldi	r23, 0x00	; 0
     e3e:	0e 94 be 05 	call	0xb7c	; 0xb7c <send_cmd>
     e42:	81 30       	cpi	r24, 0x01	; 1
     e44:	09 f0       	breq	.+2      	; 0xe48 <disk_initialize+0x64>
     e46:	40 c0       	rjmp	.+128    	; 0xec8 <disk_initialize+0xe4>
     e48:	6e 01       	movw	r12, r28
     e4a:	08 94       	sec
     e4c:	c1 1c       	adc	r12, r1
     e4e:	d1 1c       	adc	r13, r1
     e50:	76 01       	movw	r14, r12
     e52:	9f ef       	ldi	r25, 0xFF	; 255
     e54:	9e 01       	movw	r18, r28
     e56:	2b 5f       	subi	r18, 0xFB	; 251
     e58:	3f 4f       	sbci	r19, 0xFF	; 255
     e5a:	9f b9       	out	0x0f, r25	; 15
     e5c:	77 9b       	sbis	0x0e, 7	; 14
     e5e:	fe cf       	rjmp	.-4      	; 0xe5c <disk_initialize+0x78>
     e60:	8f b1       	in	r24, 0x0f	; 15
     e62:	f7 01       	movw	r30, r14
     e64:	81 93       	st	Z+, r24
     e66:	7f 01       	movw	r14, r30
     e68:	e2 17       	cp	r30, r18
     e6a:	f3 07       	cpc	r31, r19
     e6c:	b1 f7       	brne	.-20     	; 0xe5a <disk_initialize+0x76>
     e6e:	8b 81       	ldd	r24, Y+3	; 0x03
     e70:	81 30       	cpi	r24, 0x01	; 1
     e72:	09 f0       	breq	.+2      	; 0xe76 <disk_initialize+0x92>
     e74:	4b c0       	rjmp	.+150    	; 0xf0c <disk_initialize+0x128>
     e76:	8c 81       	ldd	r24, Y+4	; 0x04
     e78:	8a 3a       	cpi	r24, 0xAA	; 170
     e7a:	09 f0       	breq	.+2      	; 0xe7e <disk_initialize+0x9a>
     e7c:	47 c0       	rjmp	.+142    	; 0xf0c <disk_initialize+0x128>
     e7e:	00 ee       	ldi	r16, 0xE0	; 224
     e80:	1e e2       	ldi	r17, 0x2E	; 46
     e82:	04 c0       	rjmp	.+8      	; 0xe8c <disk_initialize+0xa8>
     e84:	01 50       	subi	r16, 0x01	; 1
     e86:	10 40       	sbci	r17, 0x00	; 0
     e88:	09 f4       	brne	.+2      	; 0xe8c <disk_initialize+0xa8>
     e8a:	40 c0       	rjmp	.+128    	; 0xf0c <disk_initialize+0x128>
     e8c:	89 ee       	ldi	r24, 0xE9	; 233
     e8e:	40 e0       	ldi	r20, 0x00	; 0
     e90:	50 e0       	ldi	r21, 0x00	; 0
     e92:	60 e0       	ldi	r22, 0x00	; 0
     e94:	70 e4       	ldi	r23, 0x40	; 64
     e96:	0e 94 be 05 	call	0xb7c	; 0xb7c <send_cmd>
     e9a:	88 23       	and	r24, r24
     e9c:	99 f7       	brne	.-26     	; 0xe84 <disk_initialize+0xa0>
     e9e:	50 c0       	rjmp	.+160    	; 0xf40 <disk_initialize+0x15c>
     ea0:	9f ef       	ldi	r25, 0xFF	; 255
     ea2:	9f b9       	out	0x0f, r25	; 15
     ea4:	77 9b       	sbis	0x0e, 7	; 14
     ea6:	fe cf       	rjmp	.-4      	; 0xea4 <disk_initialize+0xc0>
     ea8:	8f b1       	in	r24, 0x0f	; 15
     eaa:	f6 01       	movw	r30, r12
     eac:	81 93       	st	Z+, r24
     eae:	6f 01       	movw	r12, r30
     eb0:	ee 15       	cp	r30, r14
     eb2:	ff 05       	cpc	r31, r15
     eb4:	b1 f7       	brne	.-20     	; 0xea2 <disk_initialize+0xbe>
     eb6:	89 81       	ldd	r24, Y+1	; 0x01
     eb8:	86 fd       	sbrc	r24, 6
     eba:	03 c0       	rjmp	.+6      	; 0xec2 <disk_initialize+0xde>
     ebc:	04 e0       	ldi	r16, 0x04	; 4
     ebe:	f0 2e       	mov	r15, r16
     ec0:	26 c0       	rjmp	.+76     	; 0xf0e <disk_initialize+0x12a>
     ec2:	1c e0       	ldi	r17, 0x0C	; 12
     ec4:	f1 2e       	mov	r15, r17
     ec6:	23 c0       	rjmp	.+70     	; 0xf0e <disk_initialize+0x12a>
     ec8:	89 ee       	ldi	r24, 0xE9	; 233
     eca:	40 e0       	ldi	r20, 0x00	; 0
     ecc:	50 e0       	ldi	r21, 0x00	; 0
     ece:	60 e0       	ldi	r22, 0x00	; 0
     ed0:	70 e0       	ldi	r23, 0x00	; 0
     ed2:	0e 94 be 05 	call	0xb7c	; 0xb7c <send_cmd>
     ed6:	82 30       	cpi	r24, 0x02	; 2
     ed8:	28 f0       	brcs	.+10     	; 0xee4 <disk_initialize+0x100>
     eda:	b1 e4       	ldi	r27, 0x41	; 65
     edc:	eb 2e       	mov	r14, r27
     ede:	ff 24       	eor	r15, r15
     ee0:	f3 94       	inc	r15
     ee2:	04 c0       	rjmp	.+8      	; 0xeec <disk_initialize+0x108>
     ee4:	a9 ee       	ldi	r26, 0xE9	; 233
     ee6:	ea 2e       	mov	r14, r26
     ee8:	f2 e0       	ldi	r31, 0x02	; 2
     eea:	ff 2e       	mov	r15, r31
     eec:	08 ea       	ldi	r16, 0xA8	; 168
     eee:	11 e6       	ldi	r17, 0x61	; 97
     ef0:	03 c0       	rjmp	.+6      	; 0xef8 <disk_initialize+0x114>
     ef2:	01 50       	subi	r16, 0x01	; 1
     ef4:	10 40       	sbci	r17, 0x00	; 0
     ef6:	51 f0       	breq	.+20     	; 0xf0c <disk_initialize+0x128>
     ef8:	8e 2d       	mov	r24, r14
     efa:	40 e0       	ldi	r20, 0x00	; 0
     efc:	50 e0       	ldi	r21, 0x00	; 0
     efe:	60 e0       	ldi	r22, 0x00	; 0
     f00:	70 e0       	ldi	r23, 0x00	; 0
     f02:	0e 94 be 05 	call	0xb7c	; 0xb7c <send_cmd>
     f06:	88 23       	and	r24, r24
     f08:	a1 f7       	brne	.-24     	; 0xef2 <disk_initialize+0x10e>
     f0a:	25 c0       	rjmp	.+74     	; 0xf56 <disk_initialize+0x172>
     f0c:	ff 24       	eor	r15, r15
     f0e:	f0 92 1d 02 	sts	0x021D, r15
     f12:	c4 9a       	sbi	0x18, 4	; 24
     f14:	8f ef       	ldi	r24, 0xFF	; 255
     f16:	8f b9       	out	0x0f, r24	; 15
     f18:	77 9b       	sbis	0x0e, 7	; 14
     f1a:	fe cf       	rjmp	.-4      	; 0xf18 <disk_initialize+0x134>
     f1c:	8f b1       	in	r24, 0x0f	; 15
     f1e:	80 e0       	ldi	r24, 0x00	; 0
     f20:	ff 20       	and	r15, r15
     f22:	09 f4       	brne	.+2      	; 0xf26 <disk_initialize+0x142>
     f24:	81 e0       	ldi	r24, 0x01	; 1
     f26:	0f 90       	pop	r0
     f28:	0f 90       	pop	r0
     f2a:	0f 90       	pop	r0
     f2c:	0f 90       	pop	r0
     f2e:	cf 91       	pop	r28
     f30:	df 91       	pop	r29
     f32:	1f 91       	pop	r17
     f34:	0f 91       	pop	r16
     f36:	ff 90       	pop	r15
     f38:	ef 90       	pop	r14
     f3a:	df 90       	pop	r13
     f3c:	cf 90       	pop	r12
     f3e:	08 95       	ret
     f40:	8a e7       	ldi	r24, 0x7A	; 122
     f42:	40 e0       	ldi	r20, 0x00	; 0
     f44:	50 e0       	ldi	r21, 0x00	; 0
     f46:	60 e0       	ldi	r22, 0x00	; 0
     f48:	70 e0       	ldi	r23, 0x00	; 0
     f4a:	0e 94 be 05 	call	0xb7c	; 0xb7c <send_cmd>
     f4e:	88 23       	and	r24, r24
     f50:	09 f4       	brne	.+2      	; 0xf54 <disk_initialize+0x170>
     f52:	a6 cf       	rjmp	.-180    	; 0xea0 <disk_initialize+0xbc>
     f54:	db cf       	rjmp	.-74     	; 0xf0c <disk_initialize+0x128>
     f56:	80 e5       	ldi	r24, 0x50	; 80
     f58:	40 e0       	ldi	r20, 0x00	; 0
     f5a:	52 e0       	ldi	r21, 0x02	; 2
     f5c:	60 e0       	ldi	r22, 0x00	; 0
     f5e:	70 e0       	ldi	r23, 0x00	; 0
     f60:	0e 94 be 05 	call	0xb7c	; 0xb7c <send_cmd>
     f64:	88 23       	and	r24, r24
     f66:	91 f6       	brne	.-92     	; 0xf0c <disk_initialize+0x128>
     f68:	d2 cf       	rjmp	.-92     	; 0xf0e <disk_initialize+0x12a>

00000f6a <write_close>:
     f6a:	1f 93       	push	r17
     f6c:	80 e0       	ldi	r24, 0x00	; 0
     f6e:	90 e0       	ldi	r25, 0x00	; 0
     f70:	40 e0       	ldi	r20, 0x00	; 0
     f72:	50 e0       	ldi	r21, 0x00	; 0
     f74:	60 e0       	ldi	r22, 0x00	; 0
     f76:	70 e0       	ldi	r23, 0x00	; 0
     f78:	0e 94 7a 06 	call	0xcf4	; 0xcf4 <disk_writep>
     f7c:	10 e0       	ldi	r17, 0x00	; 0
     f7e:	0b c0       	rjmp	.+22     	; 0xf96 <write_close+0x2c>
     f80:	80 e0       	ldi	r24, 0x00	; 0
     f82:	90 e0       	ldi	r25, 0x00	; 0
     f84:	40 e0       	ldi	r20, 0x00	; 0
     f86:	50 e0       	ldi	r21, 0x00	; 0
     f88:	60 e0       	ldi	r22, 0x00	; 0
     f8a:	70 e0       	ldi	r23, 0x00	; 0
     f8c:	0e 94 7a 06 	call	0xcf4	; 0xcf4 <disk_writep>
     f90:	1f 5f       	subi	r17, 0xFF	; 255
     f92:	14 36       	cpi	r17, 0x64	; 100
     f94:	11 f0       	breq	.+4      	; 0xf9a <write_close+0x30>
     f96:	88 23       	and	r24, r24
     f98:	99 f7       	brne	.-26     	; 0xf80 <write_close+0x16>
     f9a:	1f 91       	pop	r17
     f9c:	08 95       	ret

00000f9e <dir_rewind>:
     f9e:	cf 92       	push	r12
     fa0:	df 92       	push	r13
     fa2:	ef 92       	push	r14
     fa4:	ff 92       	push	r15
     fa6:	0f 93       	push	r16
     fa8:	1f 93       	push	r17
     faa:	cf 93       	push	r28
     fac:	df 93       	push	r29
     fae:	6c 01       	movw	r12, r24
     fb0:	c0 91 1e 02 	lds	r28, 0x021E
     fb4:	d0 91 1f 02 	lds	r29, 0x021F
     fb8:	fc 01       	movw	r30, r24
     fba:	11 82       	std	Z+1, r1	; 0x01
     fbc:	10 82       	st	Z, r1
     fbe:	24 81       	ldd	r18, Z+4	; 0x04
     fc0:	35 81       	ldd	r19, Z+5	; 0x05
     fc2:	46 81       	ldd	r20, Z+6	; 0x06
     fc4:	57 81       	ldd	r21, Z+7	; 0x07
     fc6:	21 30       	cpi	r18, 0x01	; 1
     fc8:	31 05       	cpc	r19, r1
     fca:	41 05       	cpc	r20, r1
     fcc:	51 05       	cpc	r21, r1
     fce:	09 f4       	brne	.+2      	; 0xfd2 <dir_rewind+0x34>
     fd0:	5b c0       	rjmp	.+182    	; 0x1088 <dir_rewind+0xea>
     fd2:	88 85       	ldd	r24, Y+8	; 0x08
     fd4:	99 85       	ldd	r25, Y+9	; 0x09
     fd6:	aa 85       	ldd	r26, Y+10	; 0x0a
     fd8:	bb 85       	ldd	r27, Y+11	; 0x0b
     fda:	28 17       	cp	r18, r24
     fdc:	39 07       	cpc	r19, r25
     fde:	4a 07       	cpc	r20, r26
     fe0:	5b 07       	cpc	r21, r27
     fe2:	08 f0       	brcs	.+2      	; 0xfe6 <dir_rewind+0x48>
     fe4:	51 c0       	rjmp	.+162    	; 0x1088 <dir_rewind+0xea>
     fe6:	21 15       	cp	r18, r1
     fe8:	31 05       	cpc	r19, r1
     fea:	41 05       	cpc	r20, r1
     fec:	51 05       	cpc	r21, r1
     fee:	39 f4       	brne	.+14     	; 0xffe <dir_rewind+0x60>
     ff0:	88 81       	ld	r24, Y
     ff2:	83 30       	cpi	r24, 0x03	; 3
     ff4:	21 f4       	brne	.+8      	; 0xffe <dir_rewind+0x60>
     ff6:	28 89       	ldd	r18, Y+16	; 0x10
     ff8:	39 89       	ldd	r19, Y+17	; 0x11
     ffa:	4a 89       	ldd	r20, Y+18	; 0x12
     ffc:	5b 89       	ldd	r21, Y+19	; 0x13
     ffe:	f6 01       	movw	r30, r12
    1000:	20 87       	std	Z+8, r18	; 0x08
    1002:	31 87       	std	Z+9, r19	; 0x09
    1004:	42 87       	std	Z+10, r20	; 0x0a
    1006:	53 87       	std	Z+11, r21	; 0x0b
    1008:	21 15       	cp	r18, r1
    100a:	31 05       	cpc	r19, r1
    100c:	41 05       	cpc	r20, r1
    100e:	51 05       	cpc	r21, r1
    1010:	81 f1       	breq	.+96     	; 0x1072 <dir_rewind+0xd4>
    1012:	8e ef       	ldi	r24, 0xFE	; 254
    1014:	e8 2e       	mov	r14, r24
    1016:	8f ef       	ldi	r24, 0xFF	; 255
    1018:	f8 2e       	mov	r15, r24
    101a:	8f ef       	ldi	r24, 0xFF	; 255
    101c:	08 2f       	mov	r16, r24
    101e:	8f ef       	ldi	r24, 0xFF	; 255
    1020:	18 2f       	mov	r17, r24
    1022:	e2 0e       	add	r14, r18
    1024:	f3 1e       	adc	r15, r19
    1026:	04 1f       	adc	r16, r20
    1028:	15 1f       	adc	r17, r21
    102a:	88 85       	ldd	r24, Y+8	; 0x08
    102c:	99 85       	ldd	r25, Y+9	; 0x09
    102e:	aa 85       	ldd	r26, Y+10	; 0x0a
    1030:	bb 85       	ldd	r27, Y+11	; 0x0b
    1032:	02 97       	sbiw	r24, 0x02	; 2
    1034:	a1 09       	sbc	r26, r1
    1036:	b1 09       	sbc	r27, r1
    1038:	e8 16       	cp	r14, r24
    103a:	f9 06       	cpc	r15, r25
    103c:	0a 07       	cpc	r16, r26
    103e:	1b 07       	cpc	r17, r27
    1040:	28 f0       	brcs	.+10     	; 0x104c <dir_rewind+0xae>
    1042:	20 e0       	ldi	r18, 0x00	; 0
    1044:	30 e0       	ldi	r19, 0x00	; 0
    1046:	40 e0       	ldi	r20, 0x00	; 0
    1048:	50 e0       	ldi	r21, 0x00	; 0
    104a:	17 c0       	rjmp	.+46     	; 0x107a <dir_rewind+0xdc>
    104c:	29 81       	ldd	r18, Y+1	; 0x01
    104e:	30 e0       	ldi	r19, 0x00	; 0
    1050:	40 e0       	ldi	r20, 0x00	; 0
    1052:	50 e0       	ldi	r21, 0x00	; 0
    1054:	c8 01       	movw	r24, r16
    1056:	b7 01       	movw	r22, r14
    1058:	0e 94 46 18 	call	0x308c	; 0x308c <__mulsi3>
    105c:	9b 01       	movw	r18, r22
    105e:	ac 01       	movw	r20, r24
    1060:	8c 89       	ldd	r24, Y+20	; 0x14
    1062:	9d 89       	ldd	r25, Y+21	; 0x15
    1064:	ae 89       	ldd	r26, Y+22	; 0x16
    1066:	bf 89       	ldd	r27, Y+23	; 0x17
    1068:	28 0f       	add	r18, r24
    106a:	39 1f       	adc	r19, r25
    106c:	4a 1f       	adc	r20, r26
    106e:	5b 1f       	adc	r21, r27
    1070:	04 c0       	rjmp	.+8      	; 0x107a <dir_rewind+0xdc>
    1072:	28 89       	ldd	r18, Y+16	; 0x10
    1074:	39 89       	ldd	r19, Y+17	; 0x11
    1076:	4a 89       	ldd	r20, Y+18	; 0x12
    1078:	5b 89       	ldd	r21, Y+19	; 0x13
    107a:	f6 01       	movw	r30, r12
    107c:	24 87       	std	Z+12, r18	; 0x0c
    107e:	35 87       	std	Z+13, r19	; 0x0d
    1080:	46 87       	std	Z+14, r20	; 0x0e
    1082:	57 87       	std	Z+15, r21	; 0x0f
    1084:	80 e0       	ldi	r24, 0x00	; 0
    1086:	01 c0       	rjmp	.+2      	; 0x108a <dir_rewind+0xec>
    1088:	81 e0       	ldi	r24, 0x01	; 1
    108a:	df 91       	pop	r29
    108c:	cf 91       	pop	r28
    108e:	1f 91       	pop	r17
    1090:	0f 91       	pop	r16
    1092:	ff 90       	pop	r15
    1094:	ef 90       	pop	r14
    1096:	df 90       	pop	r13
    1098:	cf 90       	pop	r12
    109a:	08 95       	ret

0000109c <get_fat>:
    109c:	6f 92       	push	r6
    109e:	7f 92       	push	r7
    10a0:	8f 92       	push	r8
    10a2:	9f 92       	push	r9
    10a4:	af 92       	push	r10
    10a6:	bf 92       	push	r11
    10a8:	cf 92       	push	r12
    10aa:	df 92       	push	r13
    10ac:	ef 92       	push	r14
    10ae:	ff 92       	push	r15
    10b0:	0f 93       	push	r16
    10b2:	1f 93       	push	r17
    10b4:	df 93       	push	r29
    10b6:	cf 93       	push	r28
    10b8:	00 d0       	rcall	.+0      	; 0x10ba <get_fat+0x1e>
    10ba:	00 d0       	rcall	.+0      	; 0x10bc <get_fat+0x20>
    10bc:	cd b7       	in	r28, 0x3d	; 61
    10be:	de b7       	in	r29, 0x3e	; 62
    10c0:	4b 01       	movw	r8, r22
    10c2:	5c 01       	movw	r10, r24
    10c4:	60 90 1e 02 	lds	r6, 0x021E
    10c8:	70 90 1f 02 	lds	r7, 0x021F
    10cc:	82 e0       	ldi	r24, 0x02	; 2
    10ce:	88 16       	cp	r8, r24
    10d0:	91 04       	cpc	r9, r1
    10d2:	a1 04       	cpc	r10, r1
    10d4:	b1 04       	cpc	r11, r1
    10d6:	08 f4       	brcc	.+2      	; 0x10da <get_fat+0x3e>
    10d8:	b4 c0       	rjmp	.+360    	; 0x1242 <get_fat+0x1a6>
    10da:	f3 01       	movw	r30, r6
    10dc:	80 85       	ldd	r24, Z+8	; 0x08
    10de:	91 85       	ldd	r25, Z+9	; 0x09
    10e0:	a2 85       	ldd	r26, Z+10	; 0x0a
    10e2:	b3 85       	ldd	r27, Z+11	; 0x0b
    10e4:	88 16       	cp	r8, r24
    10e6:	99 06       	cpc	r9, r25
    10e8:	aa 06       	cpc	r10, r26
    10ea:	bb 06       	cpc	r11, r27
    10ec:	08 f0       	brcs	.+2      	; 0x10f0 <get_fat+0x54>
    10ee:	a9 c0       	rjmp	.+338    	; 0x1242 <get_fat+0x1a6>
    10f0:	80 81       	ld	r24, Z
    10f2:	82 30       	cpi	r24, 0x02	; 2
    10f4:	09 f4       	brne	.+2      	; 0x10f8 <get_fat+0x5c>
    10f6:	5f c0       	rjmp	.+190    	; 0x11b6 <get_fat+0x11a>
    10f8:	83 30       	cpi	r24, 0x03	; 3
    10fa:	09 f4       	brne	.+2      	; 0x10fe <get_fat+0x62>
    10fc:	7b c0       	rjmp	.+246    	; 0x11f4 <get_fat+0x158>
    10fe:	81 30       	cpi	r24, 0x01	; 1
    1100:	09 f0       	breq	.+2      	; 0x1104 <get_fat+0x68>
    1102:	9f c0       	rjmp	.+318    	; 0x1242 <get_fat+0x1a6>
    1104:	c4 01       	movw	r24, r8
    1106:	96 95       	lsr	r25
    1108:	87 95       	ror	r24
    110a:	88 0d       	add	r24, r8
    110c:	99 1d       	adc	r25, r9
    110e:	9c 01       	movw	r18, r24
    1110:	31 70       	andi	r19, 0x01	; 1
    1112:	89 2f       	mov	r24, r25
    1114:	99 27       	eor	r25, r25
    1116:	86 95       	lsr	r24
    1118:	6c 01       	movw	r12, r24
    111a:	ee 24       	eor	r14, r14
    111c:	ff 24       	eor	r15, r15
    111e:	f3 01       	movw	r30, r6
    1120:	44 85       	ldd	r20, Z+12	; 0x0c
    1122:	55 85       	ldd	r21, Z+13	; 0x0d
    1124:	66 85       	ldd	r22, Z+14	; 0x0e
    1126:	77 85       	ldd	r23, Z+15	; 0x0f
    1128:	ce 01       	movw	r24, r28
    112a:	01 96       	adiw	r24, 0x01	; 1
    112c:	f1 e0       	ldi	r31, 0x01	; 1
    112e:	2f 3f       	cpi	r18, 0xFF	; 255
    1130:	3f 07       	cpc	r19, r31
    1132:	49 f0       	breq	.+18     	; 0x1146 <get_fat+0xaa>
    1134:	c4 0e       	add	r12, r20
    1136:	d5 1e       	adc	r13, r21
    1138:	e6 1e       	adc	r14, r22
    113a:	f7 1e       	adc	r15, r23
    113c:	b7 01       	movw	r22, r14
    113e:	a6 01       	movw	r20, r12
    1140:	02 e0       	ldi	r16, 0x02	; 2
    1142:	10 e0       	ldi	r17, 0x00	; 0
    1144:	1e c0       	rjmp	.+60     	; 0x1182 <get_fat+0xe6>
    1146:	4c 0d       	add	r20, r12
    1148:	5d 1d       	adc	r21, r13
    114a:	6e 1d       	adc	r22, r14
    114c:	7f 1d       	adc	r23, r15
    114e:	2f ef       	ldi	r18, 0xFF	; 255
    1150:	31 e0       	ldi	r19, 0x01	; 1
    1152:	01 e0       	ldi	r16, 0x01	; 1
    1154:	10 e0       	ldi	r17, 0x00	; 0
    1156:	0e 94 18 06 	call	0xc30	; 0xc30 <disk_readp>
    115a:	88 23       	and	r24, r24
    115c:	09 f0       	breq	.+2      	; 0x1160 <get_fat+0xc4>
    115e:	71 c0       	rjmp	.+226    	; 0x1242 <get_fat+0x1a6>
    1160:	f3 01       	movw	r30, r6
    1162:	44 85       	ldd	r20, Z+12	; 0x0c
    1164:	55 85       	ldd	r21, Z+13	; 0x0d
    1166:	66 85       	ldd	r22, Z+14	; 0x0e
    1168:	77 85       	ldd	r23, Z+15	; 0x0f
    116a:	4f 5f       	subi	r20, 0xFF	; 255
    116c:	5f 4f       	sbci	r21, 0xFF	; 255
    116e:	6f 4f       	sbci	r22, 0xFF	; 255
    1170:	7f 4f       	sbci	r23, 0xFF	; 255
    1172:	4c 0d       	add	r20, r12
    1174:	5d 1d       	adc	r21, r13
    1176:	6e 1d       	adc	r22, r14
    1178:	7f 1d       	adc	r23, r15
    117a:	ce 01       	movw	r24, r28
    117c:	02 96       	adiw	r24, 0x02	; 2
    117e:	20 e0       	ldi	r18, 0x00	; 0
    1180:	30 e0       	ldi	r19, 0x00	; 0
    1182:	0e 94 18 06 	call	0xc30	; 0xc30 <disk_readp>
    1186:	88 23       	and	r24, r24
    1188:	09 f0       	breq	.+2      	; 0x118c <get_fat+0xf0>
    118a:	5b c0       	rjmp	.+182    	; 0x1242 <get_fat+0x1a6>
    118c:	69 81       	ldd	r22, Y+1	; 0x01
    118e:	7a 81       	ldd	r23, Y+2	; 0x02
    1190:	c4 01       	movw	r24, r8
    1192:	81 70       	andi	r24, 0x01	; 1
    1194:	90 70       	andi	r25, 0x00	; 0
    1196:	89 2b       	or	r24, r25
    1198:	39 f0       	breq	.+14     	; 0x11a8 <get_fat+0x10c>
    119a:	a4 e0       	ldi	r26, 0x04	; 4
    119c:	76 95       	lsr	r23
    119e:	67 95       	ror	r22
    11a0:	aa 95       	dec	r26
    11a2:	e1 f7       	brne	.-8      	; 0x119c <get_fat+0x100>
    11a4:	9b 01       	movw	r18, r22
    11a6:	23 c0       	rjmp	.+70     	; 0x11ee <get_fat+0x152>
    11a8:	9b 01       	movw	r18, r22
    11aa:	40 e0       	ldi	r20, 0x00	; 0
    11ac:	50 e0       	ldi	r21, 0x00	; 0
    11ae:	3f 70       	andi	r19, 0x0F	; 15
    11b0:	40 70       	andi	r20, 0x00	; 0
    11b2:	50 70       	andi	r21, 0x00	; 0
    11b4:	4a c0       	rjmp	.+148    	; 0x124a <get_fat+0x1ae>
    11b6:	77 27       	eor	r23, r23
    11b8:	6b 2d       	mov	r22, r11
    11ba:	5a 2d       	mov	r21, r10
    11bc:	49 2d       	mov	r20, r9
    11be:	f3 01       	movw	r30, r6
    11c0:	84 85       	ldd	r24, Z+12	; 0x0c
    11c2:	95 85       	ldd	r25, Z+13	; 0x0d
    11c4:	a6 85       	ldd	r26, Z+14	; 0x0e
    11c6:	b7 85       	ldd	r27, Z+15	; 0x0f
    11c8:	48 0f       	add	r20, r24
    11ca:	59 1f       	adc	r21, r25
    11cc:	6a 1f       	adc	r22, r26
    11ce:	7b 1f       	adc	r23, r27
    11d0:	94 01       	movw	r18, r8
    11d2:	30 70       	andi	r19, 0x00	; 0
    11d4:	22 0f       	add	r18, r18
    11d6:	33 1f       	adc	r19, r19
    11d8:	ce 01       	movw	r24, r28
    11da:	01 96       	adiw	r24, 0x01	; 1
    11dc:	02 e0       	ldi	r16, 0x02	; 2
    11de:	10 e0       	ldi	r17, 0x00	; 0
    11e0:	0e 94 18 06 	call	0xc30	; 0xc30 <disk_readp>
    11e4:	88 23       	and	r24, r24
    11e6:	69 f5       	brne	.+90     	; 0x1242 <get_fat+0x1a6>
    11e8:	89 81       	ldd	r24, Y+1	; 0x01
    11ea:	9a 81       	ldd	r25, Y+2	; 0x02
    11ec:	9c 01       	movw	r18, r24
    11ee:	40 e0       	ldi	r20, 0x00	; 0
    11f0:	50 e0       	ldi	r21, 0x00	; 0
    11f2:	2b c0       	rjmp	.+86     	; 0x124a <get_fat+0x1ae>
    11f4:	b5 01       	movw	r22, r10
    11f6:	a4 01       	movw	r20, r8
    11f8:	27 e0       	ldi	r18, 0x07	; 7
    11fa:	76 95       	lsr	r23
    11fc:	67 95       	ror	r22
    11fe:	57 95       	ror	r21
    1200:	47 95       	ror	r20
    1202:	2a 95       	dec	r18
    1204:	d1 f7       	brne	.-12     	; 0x11fa <get_fat+0x15e>
    1206:	f3 01       	movw	r30, r6
    1208:	84 85       	ldd	r24, Z+12	; 0x0c
    120a:	95 85       	ldd	r25, Z+13	; 0x0d
    120c:	a6 85       	ldd	r26, Z+14	; 0x0e
    120e:	b7 85       	ldd	r27, Z+15	; 0x0f
    1210:	48 0f       	add	r20, r24
    1212:	59 1f       	adc	r21, r25
    1214:	6a 1f       	adc	r22, r26
    1216:	7b 1f       	adc	r23, r27
    1218:	94 01       	movw	r18, r8
    121a:	2f 77       	andi	r18, 0x7F	; 127
    121c:	30 70       	andi	r19, 0x00	; 0
    121e:	22 0f       	add	r18, r18
    1220:	33 1f       	adc	r19, r19
    1222:	22 0f       	add	r18, r18
    1224:	33 1f       	adc	r19, r19
    1226:	ce 01       	movw	r24, r28
    1228:	01 96       	adiw	r24, 0x01	; 1
    122a:	04 e0       	ldi	r16, 0x04	; 4
    122c:	10 e0       	ldi	r17, 0x00	; 0
    122e:	0e 94 18 06 	call	0xc30	; 0xc30 <disk_readp>
    1232:	88 23       	and	r24, r24
    1234:	31 f4       	brne	.+12     	; 0x1242 <get_fat+0x1a6>
    1236:	29 81       	ldd	r18, Y+1	; 0x01
    1238:	3a 81       	ldd	r19, Y+2	; 0x02
    123a:	4b 81       	ldd	r20, Y+3	; 0x03
    123c:	5c 81       	ldd	r21, Y+4	; 0x04
    123e:	5f 70       	andi	r21, 0x0F	; 15
    1240:	04 c0       	rjmp	.+8      	; 0x124a <get_fat+0x1ae>
    1242:	21 e0       	ldi	r18, 0x01	; 1
    1244:	30 e0       	ldi	r19, 0x00	; 0
    1246:	40 e0       	ldi	r20, 0x00	; 0
    1248:	50 e0       	ldi	r21, 0x00	; 0
    124a:	b9 01       	movw	r22, r18
    124c:	ca 01       	movw	r24, r20
    124e:	0f 90       	pop	r0
    1250:	0f 90       	pop	r0
    1252:	0f 90       	pop	r0
    1254:	0f 90       	pop	r0
    1256:	cf 91       	pop	r28
    1258:	df 91       	pop	r29
    125a:	1f 91       	pop	r17
    125c:	0f 91       	pop	r16
    125e:	ff 90       	pop	r15
    1260:	ef 90       	pop	r14
    1262:	df 90       	pop	r13
    1264:	cf 90       	pop	r12
    1266:	bf 90       	pop	r11
    1268:	af 90       	pop	r10
    126a:	9f 90       	pop	r9
    126c:	8f 90       	pop	r8
    126e:	7f 90       	pop	r7
    1270:	6f 90       	pop	r6
    1272:	08 95       	ret

00001274 <dir_next>:
    1274:	af 92       	push	r10
    1276:	bf 92       	push	r11
    1278:	cf 92       	push	r12
    127a:	df 92       	push	r13
    127c:	ef 92       	push	r14
    127e:	ff 92       	push	r15
    1280:	0f 93       	push	r16
    1282:	1f 93       	push	r17
    1284:	cf 93       	push	r28
    1286:	df 93       	push	r29
    1288:	5c 01       	movw	r10, r24
    128a:	c0 91 1e 02 	lds	r28, 0x021E
    128e:	d0 91 1f 02 	lds	r29, 0x021F
    1292:	fc 01       	movw	r30, r24
    1294:	c0 80       	ld	r12, Z
    1296:	d1 80       	ldd	r13, Z+1	; 0x01
    1298:	08 94       	sec
    129a:	c1 1c       	adc	r12, r1
    129c:	d1 1c       	adc	r13, r1
    129e:	c1 14       	cp	r12, r1
    12a0:	d1 04       	cpc	r13, r1
    12a2:	09 f4       	brne	.+2      	; 0x12a6 <dir_next+0x32>
    12a4:	8f c0       	rjmp	.+286    	; 0x13c4 <dir_next+0x150>
    12a6:	24 85       	ldd	r18, Z+12	; 0x0c
    12a8:	35 85       	ldd	r19, Z+13	; 0x0d
    12aa:	46 85       	ldd	r20, Z+14	; 0x0e
    12ac:	57 85       	ldd	r21, Z+15	; 0x0f
    12ae:	21 15       	cp	r18, r1
    12b0:	31 05       	cpc	r19, r1
    12b2:	41 05       	cpc	r20, r1
    12b4:	51 05       	cpc	r21, r1
    12b6:	09 f4       	brne	.+2      	; 0x12ba <dir_next+0x46>
    12b8:	85 c0       	rjmp	.+266    	; 0x13c4 <dir_next+0x150>
    12ba:	c6 01       	movw	r24, r12
    12bc:	8f 70       	andi	r24, 0x0F	; 15
    12be:	90 70       	andi	r25, 0x00	; 0
    12c0:	89 2b       	or	r24, r25
    12c2:	09 f0       	breq	.+2      	; 0x12c6 <dir_next+0x52>
    12c4:	7a c0       	rjmp	.+244    	; 0x13ba <dir_next+0x146>
    12c6:	2f 5f       	subi	r18, 0xFF	; 255
    12c8:	3f 4f       	sbci	r19, 0xFF	; 255
    12ca:	4f 4f       	sbci	r20, 0xFF	; 255
    12cc:	5f 4f       	sbci	r21, 0xFF	; 255
    12ce:	24 87       	std	Z+12, r18	; 0x0c
    12d0:	35 87       	std	Z+13, r19	; 0x0d
    12d2:	46 87       	std	Z+14, r20	; 0x0e
    12d4:	57 87       	std	Z+15, r21	; 0x0f
    12d6:	40 85       	ldd	r20, Z+8	; 0x08
    12d8:	51 85       	ldd	r21, Z+9	; 0x09
    12da:	62 85       	ldd	r22, Z+10	; 0x0a
    12dc:	73 85       	ldd	r23, Z+11	; 0x0b
    12de:	41 15       	cp	r20, r1
    12e0:	51 05       	cpc	r21, r1
    12e2:	61 05       	cpc	r22, r1
    12e4:	71 05       	cpc	r23, r1
    12e6:	39 f4       	brne	.+14     	; 0x12f6 <dir_next+0x82>
    12e8:	8c 81       	ldd	r24, Y+4	; 0x04
    12ea:	9d 81       	ldd	r25, Y+5	; 0x05
    12ec:	c8 16       	cp	r12, r24
    12ee:	d9 06       	cpc	r13, r25
    12f0:	08 f4       	brcc	.+2      	; 0x12f4 <dir_next+0x80>
    12f2:	63 c0       	rjmp	.+198    	; 0x13ba <dir_next+0x146>
    12f4:	67 c0       	rjmp	.+206    	; 0x13c4 <dir_next+0x150>
    12f6:	89 81       	ldd	r24, Y+1	; 0x01
    12f8:	90 e0       	ldi	r25, 0x00	; 0
    12fa:	01 97       	sbiw	r24, 0x01	; 1
    12fc:	96 01       	movw	r18, r12
    12fe:	e4 e0       	ldi	r30, 0x04	; 4
    1300:	36 95       	lsr	r19
    1302:	27 95       	ror	r18
    1304:	ea 95       	dec	r30
    1306:	e1 f7       	brne	.-8      	; 0x1300 <dir_next+0x8c>
    1308:	82 23       	and	r24, r18
    130a:	93 23       	and	r25, r19
    130c:	89 2b       	or	r24, r25
    130e:	09 f0       	breq	.+2      	; 0x1312 <dir_next+0x9e>
    1310:	54 c0       	rjmp	.+168    	; 0x13ba <dir_next+0x146>
    1312:	cb 01       	movw	r24, r22
    1314:	ba 01       	movw	r22, r20
    1316:	0e 94 4e 08 	call	0x109c	; 0x109c <get_fat>
    131a:	9b 01       	movw	r18, r22
    131c:	ac 01       	movw	r20, r24
    131e:	62 30       	cpi	r22, 0x02	; 2
    1320:	71 05       	cpc	r23, r1
    1322:	81 05       	cpc	r24, r1
    1324:	91 05       	cpc	r25, r1
    1326:	10 f4       	brcc	.+4      	; 0x132c <dir_next+0xb8>
    1328:	81 e0       	ldi	r24, 0x01	; 1
    132a:	4d c0       	rjmp	.+154    	; 0x13c6 <dir_next+0x152>
    132c:	88 85       	ldd	r24, Y+8	; 0x08
    132e:	99 85       	ldd	r25, Y+9	; 0x09
    1330:	aa 85       	ldd	r26, Y+10	; 0x0a
    1332:	bb 85       	ldd	r27, Y+11	; 0x0b
    1334:	28 17       	cp	r18, r24
    1336:	39 07       	cpc	r19, r25
    1338:	4a 07       	cpc	r20, r26
    133a:	5b 07       	cpc	r21, r27
    133c:	08 f0       	brcs	.+2      	; 0x1340 <dir_next+0xcc>
    133e:	42 c0       	rjmp	.+132    	; 0x13c4 <dir_next+0x150>
    1340:	f5 01       	movw	r30, r10
    1342:	20 87       	std	Z+8, r18	; 0x08
    1344:	31 87       	std	Z+9, r19	; 0x09
    1346:	42 87       	std	Z+10, r20	; 0x0a
    1348:	53 87       	std	Z+11, r21	; 0x0b
    134a:	c0 91 1e 02 	lds	r28, 0x021E
    134e:	d0 91 1f 02 	lds	r29, 0x021F
    1352:	8e ef       	ldi	r24, 0xFE	; 254
    1354:	e8 2e       	mov	r14, r24
    1356:	8f ef       	ldi	r24, 0xFF	; 255
    1358:	f8 2e       	mov	r15, r24
    135a:	8f ef       	ldi	r24, 0xFF	; 255
    135c:	08 2f       	mov	r16, r24
    135e:	8f ef       	ldi	r24, 0xFF	; 255
    1360:	18 2f       	mov	r17, r24
    1362:	e2 0e       	add	r14, r18
    1364:	f3 1e       	adc	r15, r19
    1366:	04 1f       	adc	r16, r20
    1368:	15 1f       	adc	r17, r21
    136a:	88 85       	ldd	r24, Y+8	; 0x08
    136c:	99 85       	ldd	r25, Y+9	; 0x09
    136e:	aa 85       	ldd	r26, Y+10	; 0x0a
    1370:	bb 85       	ldd	r27, Y+11	; 0x0b
    1372:	02 97       	sbiw	r24, 0x02	; 2
    1374:	a1 09       	sbc	r26, r1
    1376:	b1 09       	sbc	r27, r1
    1378:	e8 16       	cp	r14, r24
    137a:	f9 06       	cpc	r15, r25
    137c:	0a 07       	cpc	r16, r26
    137e:	1b 07       	cpc	r17, r27
    1380:	28 f0       	brcs	.+10     	; 0x138c <dir_next+0x118>
    1382:	20 e0       	ldi	r18, 0x00	; 0
    1384:	30 e0       	ldi	r19, 0x00	; 0
    1386:	40 e0       	ldi	r20, 0x00	; 0
    1388:	50 e0       	ldi	r21, 0x00	; 0
    138a:	12 c0       	rjmp	.+36     	; 0x13b0 <dir_next+0x13c>
    138c:	29 81       	ldd	r18, Y+1	; 0x01
    138e:	30 e0       	ldi	r19, 0x00	; 0
    1390:	40 e0       	ldi	r20, 0x00	; 0
    1392:	50 e0       	ldi	r21, 0x00	; 0
    1394:	c8 01       	movw	r24, r16
    1396:	b7 01       	movw	r22, r14
    1398:	0e 94 46 18 	call	0x308c	; 0x308c <__mulsi3>
    139c:	9b 01       	movw	r18, r22
    139e:	ac 01       	movw	r20, r24
    13a0:	8c 89       	ldd	r24, Y+20	; 0x14
    13a2:	9d 89       	ldd	r25, Y+21	; 0x15
    13a4:	ae 89       	ldd	r26, Y+22	; 0x16
    13a6:	bf 89       	ldd	r27, Y+23	; 0x17
    13a8:	28 0f       	add	r18, r24
    13aa:	39 1f       	adc	r19, r25
    13ac:	4a 1f       	adc	r20, r26
    13ae:	5b 1f       	adc	r21, r27
    13b0:	f5 01       	movw	r30, r10
    13b2:	24 87       	std	Z+12, r18	; 0x0c
    13b4:	35 87       	std	Z+13, r19	; 0x0d
    13b6:	46 87       	std	Z+14, r20	; 0x0e
    13b8:	57 87       	std	Z+15, r21	; 0x0f
    13ba:	f5 01       	movw	r30, r10
    13bc:	d1 82       	std	Z+1, r13	; 0x01
    13be:	c0 82       	st	Z, r12
    13c0:	80 e0       	ldi	r24, 0x00	; 0
    13c2:	01 c0       	rjmp	.+2      	; 0x13c6 <dir_next+0x152>
    13c4:	83 e0       	ldi	r24, 0x03	; 3
    13c6:	df 91       	pop	r29
    13c8:	cf 91       	pop	r28
    13ca:	1f 91       	pop	r17
    13cc:	0f 91       	pop	r16
    13ce:	ff 90       	pop	r15
    13d0:	ef 90       	pop	r14
    13d2:	df 90       	pop	r13
    13d4:	cf 90       	pop	r12
    13d6:	bf 90       	pop	r11
    13d8:	af 90       	pop	r10
    13da:	08 95       	ret

000013dc <pf_lseek>:
    13dc:	2f 92       	push	r2
    13de:	3f 92       	push	r3
    13e0:	4f 92       	push	r4
    13e2:	5f 92       	push	r5
    13e4:	6f 92       	push	r6
    13e6:	7f 92       	push	r7
    13e8:	8f 92       	push	r8
    13ea:	9f 92       	push	r9
    13ec:	af 92       	push	r10
    13ee:	bf 92       	push	r11
    13f0:	cf 92       	push	r12
    13f2:	df 92       	push	r13
    13f4:	ef 92       	push	r14
    13f6:	ff 92       	push	r15
    13f8:	0f 93       	push	r16
    13fa:	1f 93       	push	r17
    13fc:	cf 93       	push	r28
    13fe:	df 93       	push	r29
    1400:	e8 2f       	mov	r30, r24
    1402:	c0 91 1e 02 	lds	r28, 0x021E
    1406:	d0 91 1f 02 	lds	r29, 0x021F
    140a:	20 97       	sbiw	r28, 0x00	; 0
    140c:	11 f4       	brne	.+4      	; 0x1412 <pf_lseek+0x36>
    140e:	86 e0       	ldi	r24, 0x06	; 6
    1410:	0d c1       	rjmp	.+538    	; 0x162c <pf_lseek+0x250>
    1412:	8a 81       	ldd	r24, Y+2	; 0x02
    1414:	80 fd       	sbrc	r24, 0
    1416:	02 c0       	rjmp	.+4      	; 0x141c <pf_lseek+0x40>
    1418:	85 e0       	ldi	r24, 0x05	; 5
    141a:	08 c1       	rjmp	.+528    	; 0x162c <pf_lseek+0x250>
    141c:	ac 8c       	ldd	r10, Y+28	; 0x1c
    141e:	bd 8c       	ldd	r11, Y+29	; 0x1d
    1420:	ce 8c       	ldd	r12, Y+30	; 0x1e
    1422:	df 8c       	ldd	r13, Y+31	; 0x1f
    1424:	4e 2f       	mov	r20, r30
    1426:	59 2f       	mov	r21, r25
    1428:	cb 01       	movw	r24, r22
    142a:	da 01       	movw	r26, r20
    142c:	3c 01       	movw	r6, r24
    142e:	4d 01       	movw	r8, r26
    1430:	a6 14       	cp	r10, r6
    1432:	b7 04       	cpc	r11, r7
    1434:	c8 04       	cpc	r12, r8
    1436:	d9 04       	cpc	r13, r9
    1438:	10 f4       	brcc	.+4      	; 0x143e <pf_lseek+0x62>
    143a:	35 01       	movw	r6, r10
    143c:	46 01       	movw	r8, r12
    143e:	28 8d       	ldd	r18, Y+24	; 0x18
    1440:	39 8d       	ldd	r19, Y+25	; 0x19
    1442:	4a 8d       	ldd	r20, Y+26	; 0x1a
    1444:	5b 8d       	ldd	r21, Y+27	; 0x1b
    1446:	18 8e       	std	Y+24, r1	; 0x18
    1448:	19 8e       	std	Y+25, r1	; 0x19
    144a:	1a 8e       	std	Y+26, r1	; 0x1a
    144c:	1b 8e       	std	Y+27, r1	; 0x1b
    144e:	61 14       	cp	r6, r1
    1450:	71 04       	cpc	r7, r1
    1452:	81 04       	cpc	r8, r1
    1454:	91 04       	cpc	r9, r1
    1456:	09 f4       	brne	.+2      	; 0x145a <pf_lseek+0x7e>
    1458:	e8 c0       	rjmp	.+464    	; 0x162a <pf_lseek+0x24e>
    145a:	89 81       	ldd	r24, Y+1	; 0x01
    145c:	a8 2e       	mov	r10, r24
    145e:	bb 24       	eor	r11, r11
    1460:	cc 24       	eor	r12, r12
    1462:	dd 24       	eor	r13, r13
    1464:	99 e0       	ldi	r25, 0x09	; 9
    1466:	aa 0c       	add	r10, r10
    1468:	bb 1c       	adc	r11, r11
    146a:	cc 1c       	adc	r12, r12
    146c:	dd 1c       	adc	r13, r13
    146e:	9a 95       	dec	r25
    1470:	d1 f7       	brne	.-12     	; 0x1466 <pf_lseek+0x8a>
    1472:	21 15       	cp	r18, r1
    1474:	31 05       	cpc	r19, r1
    1476:	41 05       	cpc	r20, r1
    1478:	51 05       	cpc	r21, r1
    147a:	b1 f1       	breq	.+108    	; 0x14e8 <pf_lseek+0x10c>
    147c:	19 01       	movw	r2, r18
    147e:	2a 01       	movw	r4, r20
    1480:	08 94       	sec
    1482:	21 08       	sbc	r2, r1
    1484:	31 08       	sbc	r3, r1
    1486:	41 08       	sbc	r4, r1
    1488:	51 08       	sbc	r5, r1
    148a:	c4 01       	movw	r24, r8
    148c:	b3 01       	movw	r22, r6
    148e:	61 50       	subi	r22, 0x01	; 1
    1490:	70 40       	sbci	r23, 0x00	; 0
    1492:	80 40       	sbci	r24, 0x00	; 0
    1494:	90 40       	sbci	r25, 0x00	; 0
    1496:	a6 01       	movw	r20, r12
    1498:	95 01       	movw	r18, r10
    149a:	0e 94 71 18 	call	0x30e2	; 0x30e2 <__udivmodsi4>
    149e:	79 01       	movw	r14, r18
    14a0:	8a 01       	movw	r16, r20
    14a2:	c2 01       	movw	r24, r4
    14a4:	b1 01       	movw	r22, r2
    14a6:	a6 01       	movw	r20, r12
    14a8:	95 01       	movw	r18, r10
    14aa:	0e 94 71 18 	call	0x30e2	; 0x30e2 <__udivmodsi4>
    14ae:	e2 16       	cp	r14, r18
    14b0:	f3 06       	cpc	r15, r19
    14b2:	04 07       	cpc	r16, r20
    14b4:	15 07       	cpc	r17, r21
    14b6:	c0 f0       	brcs	.+48     	; 0x14e8 <pf_lseek+0x10c>
    14b8:	88 27       	eor	r24, r24
    14ba:	99 27       	eor	r25, r25
    14bc:	dc 01       	movw	r26, r24
    14be:	8a 19       	sub	r24, r10
    14c0:	9b 09       	sbc	r25, r11
    14c2:	ac 09       	sbc	r26, r12
    14c4:	bd 09       	sbc	r27, r13
    14c6:	82 21       	and	r24, r2
    14c8:	93 21       	and	r25, r3
    14ca:	a4 21       	and	r26, r4
    14cc:	b5 21       	and	r27, r5
    14ce:	88 8f       	std	Y+24, r24	; 0x18
    14d0:	99 8f       	std	Y+25, r25	; 0x19
    14d2:	aa 8f       	std	Y+26, r26	; 0x1a
    14d4:	bb 8f       	std	Y+27, r27	; 0x1b
    14d6:	68 1a       	sub	r6, r24
    14d8:	79 0a       	sbc	r7, r25
    14da:	8a 0a       	sbc	r8, r26
    14dc:	9b 0a       	sbc	r9, r27
    14de:	2c a1       	ldd	r18, Y+36	; 0x24
    14e0:	3d a1       	ldd	r19, Y+37	; 0x25
    14e2:	4e a1       	ldd	r20, Y+38	; 0x26
    14e4:	5f a1       	ldd	r21, Y+39	; 0x27
    14e6:	33 c0       	rjmp	.+102    	; 0x154e <pf_lseek+0x172>
    14e8:	28 a1       	ldd	r18, Y+32	; 0x20
    14ea:	39 a1       	ldd	r19, Y+33	; 0x21
    14ec:	4a a1       	ldd	r20, Y+34	; 0x22
    14ee:	5b a1       	ldd	r21, Y+35	; 0x23
    14f0:	2c a3       	std	Y+36, r18	; 0x24
    14f2:	3d a3       	std	Y+37, r19	; 0x25
    14f4:	4e a3       	std	Y+38, r20	; 0x26
    14f6:	5f a3       	std	Y+39, r21	; 0x27
    14f8:	2a c0       	rjmp	.+84     	; 0x154e <pf_lseek+0x172>
    14fa:	ca 01       	movw	r24, r20
    14fc:	b9 01       	movw	r22, r18
    14fe:	0e 94 4e 08 	call	0x109c	; 0x109c <get_fat>
    1502:	9b 01       	movw	r18, r22
    1504:	ac 01       	movw	r20, r24
    1506:	62 30       	cpi	r22, 0x02	; 2
    1508:	71 05       	cpc	r23, r1
    150a:	81 05       	cpc	r24, r1
    150c:	91 05       	cpc	r25, r1
    150e:	08 f4       	brcc	.+2      	; 0x1512 <pf_lseek+0x136>
    1510:	89 c0       	rjmp	.+274    	; 0x1624 <pf_lseek+0x248>
    1512:	88 85       	ldd	r24, Y+8	; 0x08
    1514:	99 85       	ldd	r25, Y+9	; 0x09
    1516:	aa 85       	ldd	r26, Y+10	; 0x0a
    1518:	bb 85       	ldd	r27, Y+11	; 0x0b
    151a:	28 17       	cp	r18, r24
    151c:	39 07       	cpc	r19, r25
    151e:	4a 07       	cpc	r20, r26
    1520:	5b 07       	cpc	r21, r27
    1522:	08 f0       	brcs	.+2      	; 0x1526 <pf_lseek+0x14a>
    1524:	7f c0       	rjmp	.+254    	; 0x1624 <pf_lseek+0x248>
    1526:	2c a3       	std	Y+36, r18	; 0x24
    1528:	3d a3       	std	Y+37, r19	; 0x25
    152a:	4e a3       	std	Y+38, r20	; 0x26
    152c:	5f a3       	std	Y+39, r21	; 0x27
    152e:	88 8d       	ldd	r24, Y+24	; 0x18
    1530:	99 8d       	ldd	r25, Y+25	; 0x19
    1532:	aa 8d       	ldd	r26, Y+26	; 0x1a
    1534:	bb 8d       	ldd	r27, Y+27	; 0x1b
    1536:	8a 0d       	add	r24, r10
    1538:	9b 1d       	adc	r25, r11
    153a:	ac 1d       	adc	r26, r12
    153c:	bd 1d       	adc	r27, r13
    153e:	88 8f       	std	Y+24, r24	; 0x18
    1540:	99 8f       	std	Y+25, r25	; 0x19
    1542:	aa 8f       	std	Y+26, r26	; 0x1a
    1544:	bb 8f       	std	Y+27, r27	; 0x1b
    1546:	6a 18       	sub	r6, r10
    1548:	7b 08       	sbc	r7, r11
    154a:	8c 08       	sbc	r8, r12
    154c:	9d 08       	sbc	r9, r13
    154e:	a6 14       	cp	r10, r6
    1550:	b7 04       	cpc	r11, r7
    1552:	c8 04       	cpc	r12, r8
    1554:	d9 04       	cpc	r13, r9
    1556:	88 f2       	brcs	.-94     	; 0x14fa <pf_lseek+0x11e>
    1558:	88 8d       	ldd	r24, Y+24	; 0x18
    155a:	99 8d       	ldd	r25, Y+25	; 0x19
    155c:	aa 8d       	ldd	r26, Y+26	; 0x1a
    155e:	bb 8d       	ldd	r27, Y+27	; 0x1b
    1560:	86 0d       	add	r24, r6
    1562:	97 1d       	adc	r25, r7
    1564:	a8 1d       	adc	r26, r8
    1566:	b9 1d       	adc	r27, r9
    1568:	88 8f       	std	Y+24, r24	; 0x18
    156a:	99 8f       	std	Y+25, r25	; 0x19
    156c:	aa 8f       	std	Y+26, r26	; 0x1a
    156e:	bb 8f       	std	Y+27, r27	; 0x1b
    1570:	00 91 1e 02 	lds	r16, 0x021E
    1574:	10 91 1f 02 	lds	r17, 0x021F
    1578:	8e ef       	ldi	r24, 0xFE	; 254
    157a:	a8 2e       	mov	r10, r24
    157c:	8f ef       	ldi	r24, 0xFF	; 255
    157e:	b8 2e       	mov	r11, r24
    1580:	8f ef       	ldi	r24, 0xFF	; 255
    1582:	c8 2e       	mov	r12, r24
    1584:	8f ef       	ldi	r24, 0xFF	; 255
    1586:	d8 2e       	mov	r13, r24
    1588:	a2 0e       	add	r10, r18
    158a:	b3 1e       	adc	r11, r19
    158c:	c4 1e       	adc	r12, r20
    158e:	d5 1e       	adc	r13, r21
    1590:	f8 01       	movw	r30, r16
    1592:	80 85       	ldd	r24, Z+8	; 0x08
    1594:	91 85       	ldd	r25, Z+9	; 0x09
    1596:	a2 85       	ldd	r26, Z+10	; 0x0a
    1598:	b3 85       	ldd	r27, Z+11	; 0x0b
    159a:	02 97       	sbiw	r24, 0x02	; 2
    159c:	a1 09       	sbc	r26, r1
    159e:	b1 09       	sbc	r27, r1
    15a0:	a8 16       	cp	r10, r24
    15a2:	b9 06       	cpc	r11, r25
    15a4:	ca 06       	cpc	r12, r26
    15a6:	db 06       	cpc	r13, r27
    15a8:	e8 f5       	brcc	.+122    	; 0x1624 <pf_lseek+0x248>
    15aa:	21 81       	ldd	r18, Z+1	; 0x01
    15ac:	30 e0       	ldi	r19, 0x00	; 0
    15ae:	40 e0       	ldi	r20, 0x00	; 0
    15b0:	50 e0       	ldi	r21, 0x00	; 0
    15b2:	c6 01       	movw	r24, r12
    15b4:	b5 01       	movw	r22, r10
    15b6:	0e 94 46 18 	call	0x308c	; 0x308c <__mulsi3>
    15ba:	9b 01       	movw	r18, r22
    15bc:	ac 01       	movw	r20, r24
    15be:	f8 01       	movw	r30, r16
    15c0:	84 89       	ldd	r24, Z+20	; 0x14
    15c2:	95 89       	ldd	r25, Z+21	; 0x15
    15c4:	a6 89       	ldd	r26, Z+22	; 0x16
    15c6:	b7 89       	ldd	r27, Z+23	; 0x17
    15c8:	28 0f       	add	r18, r24
    15ca:	39 1f       	adc	r19, r25
    15cc:	4a 1f       	adc	r20, r26
    15ce:	5b 1f       	adc	r21, r27
    15d0:	21 15       	cp	r18, r1
    15d2:	31 05       	cpc	r19, r1
    15d4:	41 05       	cpc	r20, r1
    15d6:	51 05       	cpc	r21, r1
    15d8:	29 f1       	breq	.+74     	; 0x1624 <pf_lseek+0x248>
    15da:	d4 01       	movw	r26, r8
    15dc:	c3 01       	movw	r24, r6
    15de:	19 e0       	ldi	r17, 0x09	; 9
    15e0:	b6 95       	lsr	r27
    15e2:	a7 95       	ror	r26
    15e4:	97 95       	ror	r25
    15e6:	87 95       	ror	r24
    15e8:	1a 95       	dec	r17
    15ea:	d1 f7       	brne	.-12     	; 0x15e0 <pf_lseek+0x204>
    15ec:	98 2f       	mov	r25, r24
    15ee:	8b 83       	std	Y+3, r24	; 0x03
    15f0:	ff ef       	ldi	r31, 0xFF	; 255
    15f2:	ef 2e       	mov	r14, r31
    15f4:	f1 e0       	ldi	r31, 0x01	; 1
    15f6:	ff 2e       	mov	r15, r31
    15f8:	01 2d       	mov	r16, r1
    15fa:	11 2d       	mov	r17, r1
    15fc:	6e 20       	and	r6, r14
    15fe:	7f 20       	and	r7, r15
    1600:	80 22       	and	r8, r16
    1602:	91 22       	and	r9, r17
    1604:	61 14       	cp	r6, r1
    1606:	71 04       	cpc	r7, r1
    1608:	81 04       	cpc	r8, r1
    160a:	91 04       	cpc	r9, r1
    160c:	71 f0       	breq	.+28     	; 0x162a <pf_lseek+0x24e>
    160e:	28 0f       	add	r18, r24
    1610:	31 1d       	adc	r19, r1
    1612:	41 1d       	adc	r20, r1
    1614:	51 1d       	adc	r21, r1
    1616:	28 a7       	std	Y+40, r18	; 0x28
    1618:	39 a7       	std	Y+41, r19	; 0x29
    161a:	4a a7       	std	Y+42, r20	; 0x2a
    161c:	5b a7       	std	Y+43, r21	; 0x2b
    161e:	9f 5f       	subi	r25, 0xFF	; 255
    1620:	9b 83       	std	Y+3, r25	; 0x03
    1622:	03 c0       	rjmp	.+6      	; 0x162a <pf_lseek+0x24e>
    1624:	1a 82       	std	Y+2, r1	; 0x02
    1626:	81 e0       	ldi	r24, 0x01	; 1
    1628:	01 c0       	rjmp	.+2      	; 0x162c <pf_lseek+0x250>
    162a:	80 e0       	ldi	r24, 0x00	; 0
    162c:	df 91       	pop	r29
    162e:	cf 91       	pop	r28
    1630:	1f 91       	pop	r17
    1632:	0f 91       	pop	r16
    1634:	ff 90       	pop	r15
    1636:	ef 90       	pop	r14
    1638:	df 90       	pop	r13
    163a:	cf 90       	pop	r12
    163c:	bf 90       	pop	r11
    163e:	af 90       	pop	r10
    1640:	9f 90       	pop	r9
    1642:	8f 90       	pop	r8
    1644:	7f 90       	pop	r7
    1646:	6f 90       	pop	r6
    1648:	5f 90       	pop	r5
    164a:	4f 90       	pop	r4
    164c:	3f 90       	pop	r3
    164e:	2f 90       	pop	r2
    1650:	08 95       	ret

00001652 <pf_readdir>:
    1652:	af 92       	push	r10
    1654:	bf 92       	push	r11
    1656:	cf 92       	push	r12
    1658:	df 92       	push	r13
    165a:	ef 92       	push	r14
    165c:	ff 92       	push	r15
    165e:	0f 93       	push	r16
    1660:	1f 93       	push	r17
    1662:	df 93       	push	r29
    1664:	cf 93       	push	r28
    1666:	cd b7       	in	r28, 0x3d	; 61
    1668:	de b7       	in	r29, 0x3e	; 62
    166a:	ac 97       	sbiw	r28, 0x2c	; 44
    166c:	0f b6       	in	r0, 0x3f	; 63
    166e:	f8 94       	cli
    1670:	de bf       	out	0x3e, r29	; 62
    1672:	0f be       	out	0x3f, r0	; 63
    1674:	cd bf       	out	0x3d, r28	; 61
    1676:	7c 01       	movw	r14, r24
    1678:	5b 01       	movw	r10, r22
    167a:	e0 91 1e 02 	lds	r30, 0x021E
    167e:	f0 91 1f 02 	lds	r31, 0x021F
    1682:	30 97       	sbiw	r30, 0x00	; 0
    1684:	11 f4       	brne	.+4      	; 0x168a <pf_readdir+0x38>
    1686:	86 e0       	ldi	r24, 0x06	; 6
    1688:	c6 c0       	rjmp	.+396    	; 0x1816 <pf_readdir+0x1c4>
    168a:	ce 01       	movw	r24, r28
    168c:	0d 96       	adiw	r24, 0x0d	; 13
    168e:	97 83       	std	Z+7, r25	; 0x07
    1690:	86 83       	std	Z+6, r24	; 0x06
    1692:	ce 01       	movw	r24, r28
    1694:	01 96       	adiw	r24, 0x01	; 1
    1696:	d7 01       	movw	r26, r14
    1698:	13 96       	adiw	r26, 0x03	; 3
    169a:	9c 93       	st	X, r25
    169c:	8e 93       	st	-X, r24
    169e:	12 97       	sbiw	r26, 0x02	; 2
    16a0:	61 15       	cp	r22, r1
    16a2:	71 05       	cpc	r23, r1
    16a4:	21 f4       	brne	.+8      	; 0x16ae <pf_readdir+0x5c>
    16a6:	c7 01       	movw	r24, r14
    16a8:	0e 94 cf 07 	call	0xf9e	; 0xf9e <dir_rewind>
    16ac:	b4 c0       	rjmp	.+360    	; 0x1816 <pf_readdir+0x1c4>
    16ae:	c6 80       	ldd	r12, Z+6	; 0x06
    16b0:	d7 80       	ldd	r13, Z+7	; 0x07
    16b2:	83 e0       	ldi	r24, 0x03	; 3
    16b4:	26 c0       	rjmp	.+76     	; 0x1702 <pf_readdir+0xb0>
    16b6:	f7 01       	movw	r30, r14
    16b8:	20 81       	ld	r18, Z
    16ba:	31 81       	ldd	r19, Z+1	; 0x01
    16bc:	2f 70       	andi	r18, 0x0F	; 15
    16be:	30 70       	andi	r19, 0x00	; 0
    16c0:	e5 e0       	ldi	r30, 0x05	; 5
    16c2:	22 0f       	add	r18, r18
    16c4:	33 1f       	adc	r19, r19
    16c6:	ea 95       	dec	r30
    16c8:	e1 f7       	brne	.-8      	; 0x16c2 <pf_readdir+0x70>
    16ca:	c6 01       	movw	r24, r12
    16cc:	00 e2       	ldi	r16, 0x20	; 32
    16ce:	10 e0       	ldi	r17, 0x00	; 0
    16d0:	0e 94 18 06 	call	0xc30	; 0xc30 <disk_readp>
    16d4:	88 23       	and	r24, r24
    16d6:	11 f0       	breq	.+4      	; 0x16dc <pf_readdir+0x8a>
    16d8:	81 e0       	ldi	r24, 0x01	; 1
    16da:	1f c0       	rjmp	.+62     	; 0x171a <pf_readdir+0xc8>
    16dc:	d6 01       	movw	r26, r12
    16de:	9c 91       	ld	r25, X
    16e0:	99 23       	and	r25, r25
    16e2:	09 f4       	brne	.+2      	; 0x16e6 <pf_readdir+0x94>
    16e4:	a9 c0       	rjmp	.+338    	; 0x1838 <pf_readdir+0x1e6>
    16e6:	1b 96       	adiw	r26, 0x0b	; 11
    16e8:	8c 91       	ld	r24, X
    16ea:	95 3e       	cpi	r25, 0xE5	; 229
    16ec:	29 f0       	breq	.+10     	; 0x16f8 <pf_readdir+0xa6>
    16ee:	9e 32       	cpi	r25, 0x2E	; 46
    16f0:	19 f0       	breq	.+6      	; 0x16f8 <pf_readdir+0xa6>
    16f2:	8f 73       	andi	r24, 0x3F	; 63
    16f4:	83 ff       	sbrs	r24, 3
    16f6:	1d c0       	rjmp	.+58     	; 0x1732 <pf_readdir+0xe0>
    16f8:	c7 01       	movw	r24, r14
    16fa:	0e 94 3a 09 	call	0x1274	; 0x1274 <dir_next>
    16fe:	88 23       	and	r24, r24
    1700:	61 f4       	brne	.+24     	; 0x171a <pf_readdir+0xc8>
    1702:	f7 01       	movw	r30, r14
    1704:	44 85       	ldd	r20, Z+12	; 0x0c
    1706:	55 85       	ldd	r21, Z+13	; 0x0d
    1708:	66 85       	ldd	r22, Z+14	; 0x0e
    170a:	77 85       	ldd	r23, Z+15	; 0x0f
    170c:	41 15       	cp	r20, r1
    170e:	51 05       	cpc	r21, r1
    1710:	61 05       	cpc	r22, r1
    1712:	71 05       	cpc	r23, r1
    1714:	81 f6       	brne	.-96     	; 0x16b6 <pf_readdir+0x64>
    1716:	88 23       	and	r24, r24
    1718:	61 f0       	breq	.+24     	; 0x1732 <pf_readdir+0xe0>
    171a:	d7 01       	movw	r26, r14
    171c:	1c 96       	adiw	r26, 0x0c	; 12
    171e:	1d 92       	st	X+, r1
    1720:	1d 92       	st	X+, r1
    1722:	1d 92       	st	X+, r1
    1724:	1c 92       	st	X, r1
    1726:	1f 97       	sbiw	r26, 0x0f	; 15
    1728:	83 30       	cpi	r24, 0x03	; 3
    172a:	19 f0       	breq	.+6      	; 0x1732 <pf_readdir+0xe0>
    172c:	88 23       	and	r24, r24
    172e:	09 f0       	breq	.+2      	; 0x1732 <pf_readdir+0xe0>
    1730:	72 c0       	rjmp	.+228    	; 0x1816 <pf_readdir+0x1c4>
    1732:	95 01       	movw	r18, r10
    1734:	27 5f       	subi	r18, 0xF7	; 247
    1736:	3f 4f       	sbci	r19, 0xFF	; 255
    1738:	f7 01       	movw	r30, r14
    173a:	84 85       	ldd	r24, Z+12	; 0x0c
    173c:	95 85       	ldd	r25, Z+13	; 0x0d
    173e:	a6 85       	ldd	r26, Z+14	; 0x0e
    1740:	b7 85       	ldd	r27, Z+15	; 0x0f
    1742:	00 97       	sbiw	r24, 0x00	; 0
    1744:	a1 05       	cpc	r26, r1
    1746:	b1 05       	cpc	r27, r1
    1748:	09 f4       	brne	.+2      	; 0x174c <pf_readdir+0xfa>
    174a:	56 c0       	rjmp	.+172    	; 0x17f8 <pf_readdir+0x1a6>
    174c:	e0 91 1e 02 	lds	r30, 0x021E
    1750:	f0 91 1f 02 	lds	r31, 0x021F
    1754:	46 81       	ldd	r20, Z+6	; 0x06
    1756:	57 81       	ldd	r21, Z+7	; 0x07
    1758:	80 e0       	ldi	r24, 0x00	; 0
    175a:	90 e0       	ldi	r25, 0x00	; 0
    175c:	fa 01       	movw	r30, r20
    175e:	e8 0f       	add	r30, r24
    1760:	f9 1f       	adc	r31, r25
    1762:	e0 81       	ld	r30, Z
    1764:	e0 32       	cpi	r30, 0x20	; 32
    1766:	51 f0       	breq	.+20     	; 0x177c <pf_readdir+0x12a>
    1768:	e5 30       	cpi	r30, 0x05	; 5
    176a:	09 f4       	brne	.+2      	; 0x176e <pf_readdir+0x11c>
    176c:	e5 ee       	ldi	r30, 0xE5	; 229
    176e:	d9 01       	movw	r26, r18
    1770:	ed 93       	st	X+, r30
    1772:	9d 01       	movw	r18, r26
    1774:	01 96       	adiw	r24, 0x01	; 1
    1776:	88 30       	cpi	r24, 0x08	; 8
    1778:	91 05       	cpc	r25, r1
    177a:	81 f7       	brne	.-32     	; 0x175c <pf_readdir+0x10a>
    177c:	fa 01       	movw	r30, r20
    177e:	80 85       	ldd	r24, Z+8	; 0x08
    1780:	80 32       	cpi	r24, 0x20	; 32
    1782:	11 f4       	brne	.+4      	; 0x1788 <pf_readdir+0x136>
    1784:	f9 01       	movw	r30, r18
    1786:	10 c0       	rjmp	.+32     	; 0x17a8 <pf_readdir+0x156>
    1788:	f9 01       	movw	r30, r18
    178a:	8e e2       	ldi	r24, 0x2E	; 46
    178c:	81 93       	st	Z+, r24
    178e:	da 01       	movw	r26, r20
    1790:	2c 5f       	subi	r18, 0xFC	; 252
    1792:	3f 4f       	sbci	r19, 0xFF	; 255
    1794:	18 96       	adiw	r26, 0x08	; 8
    1796:	8c 91       	ld	r24, X
    1798:	18 97       	sbiw	r26, 0x08	; 8
    179a:	80 32       	cpi	r24, 0x20	; 32
    179c:	29 f0       	breq	.+10     	; 0x17a8 <pf_readdir+0x156>
    179e:	81 93       	st	Z+, r24
    17a0:	11 96       	adiw	r26, 0x01	; 1
    17a2:	e2 17       	cp	r30, r18
    17a4:	f3 07       	cpc	r31, r19
    17a6:	b1 f7       	brne	.-20     	; 0x1794 <pf_readdir+0x142>
    17a8:	da 01       	movw	r26, r20
    17aa:	1b 96       	adiw	r26, 0x0b	; 11
    17ac:	8c 91       	ld	r24, X
    17ae:	d5 01       	movw	r26, r10
    17b0:	18 96       	adiw	r26, 0x08	; 8
    17b2:	8c 93       	st	X, r24
    17b4:	da 01       	movw	r26, r20
    17b6:	5c 96       	adiw	r26, 0x1c	; 28
    17b8:	0d 91       	ld	r16, X+
    17ba:	1d 91       	ld	r17, X+
    17bc:	2d 91       	ld	r18, X+
    17be:	3c 91       	ld	r19, X
    17c0:	5f 97       	sbiw	r26, 0x1f	; 31
    17c2:	d5 01       	movw	r26, r10
    17c4:	0d 93       	st	X+, r16
    17c6:	1d 93       	st	X+, r17
    17c8:	2d 93       	st	X+, r18
    17ca:	3c 93       	st	X, r19
    17cc:	13 97       	sbiw	r26, 0x03	; 3
    17ce:	da 01       	movw	r26, r20
    17d0:	58 96       	adiw	r26, 0x18	; 24
    17d2:	8d 91       	ld	r24, X+
    17d4:	9c 91       	ld	r25, X
    17d6:	59 97       	sbiw	r26, 0x19	; 25
    17d8:	d5 01       	movw	r26, r10
    17da:	15 96       	adiw	r26, 0x05	; 5
    17dc:	9c 93       	st	X, r25
    17de:	8e 93       	st	-X, r24
    17e0:	14 97       	sbiw	r26, 0x04	; 4
    17e2:	da 01       	movw	r26, r20
    17e4:	56 96       	adiw	r26, 0x16	; 22
    17e6:	8d 91       	ld	r24, X+
    17e8:	9c 91       	ld	r25, X
    17ea:	57 97       	sbiw	r26, 0x17	; 23
    17ec:	d5 01       	movw	r26, r10
    17ee:	17 96       	adiw	r26, 0x07	; 7
    17f0:	9c 93       	st	X, r25
    17f2:	8e 93       	st	-X, r24
    17f4:	16 97       	sbiw	r26, 0x06	; 6
    17f6:	9f 01       	movw	r18, r30
    17f8:	f9 01       	movw	r30, r18
    17fa:	10 82       	st	Z, r1
    17fc:	c7 01       	movw	r24, r14
    17fe:	0e 94 3a 09 	call	0x1274	; 0x1274 <dir_next>
    1802:	83 30       	cpi	r24, 0x03	; 3
    1804:	41 f4       	brne	.+16     	; 0x1816 <pf_readdir+0x1c4>
    1806:	d7 01       	movw	r26, r14
    1808:	1c 96       	adiw	r26, 0x0c	; 12
    180a:	1d 92       	st	X+, r1
    180c:	1d 92       	st	X+, r1
    180e:	1d 92       	st	X+, r1
    1810:	1c 92       	st	X, r1
    1812:	1f 97       	sbiw	r26, 0x0f	; 15
    1814:	80 e0       	ldi	r24, 0x00	; 0
    1816:	ac 96       	adiw	r28, 0x2c	; 44
    1818:	0f b6       	in	r0, 0x3f	; 63
    181a:	f8 94       	cli
    181c:	de bf       	out	0x3e, r29	; 62
    181e:	0f be       	out	0x3f, r0	; 63
    1820:	cd bf       	out	0x3d, r28	; 61
    1822:	cf 91       	pop	r28
    1824:	df 91       	pop	r29
    1826:	1f 91       	pop	r17
    1828:	0f 91       	pop	r16
    182a:	ff 90       	pop	r15
    182c:	ef 90       	pop	r14
    182e:	df 90       	pop	r13
    1830:	cf 90       	pop	r12
    1832:	bf 90       	pop	r11
    1834:	af 90       	pop	r10
    1836:	08 95       	ret
    1838:	83 e0       	ldi	r24, 0x03	; 3
    183a:	6f cf       	rjmp	.-290    	; 0x171a <pf_readdir+0xc8>

0000183c <follow_path>:
    183c:	8f 92       	push	r8
    183e:	9f 92       	push	r9
    1840:	af 92       	push	r10
    1842:	bf 92       	push	r11
    1844:	cf 92       	push	r12
    1846:	df 92       	push	r13
    1848:	ef 92       	push	r14
    184a:	ff 92       	push	r15
    184c:	0f 93       	push	r16
    184e:	1f 93       	push	r17
    1850:	cf 93       	push	r28
    1852:	df 93       	push	r29
    1854:	ec 01       	movw	r28, r24
    1856:	7b 01       	movw	r14, r22
    1858:	03 c0       	rjmp	.+6      	; 0x1860 <follow_path+0x24>
    185a:	08 94       	sec
    185c:	e1 1c       	adc	r14, r1
    185e:	f1 1c       	adc	r15, r1
    1860:	f7 01       	movw	r30, r14
    1862:	80 81       	ld	r24, Z
    1864:	80 32       	cpi	r24, 0x20	; 32
    1866:	c9 f3       	breq	.-14     	; 0x185a <follow_path+0x1e>
    1868:	8f 32       	cpi	r24, 0x2F	; 47
    186a:	19 f4       	brne	.+6      	; 0x1872 <follow_path+0x36>
    186c:	08 94       	sec
    186e:	e1 1c       	adc	r14, r1
    1870:	f1 1c       	adc	r15, r1
    1872:	1c 82       	std	Y+4, r1	; 0x04
    1874:	1d 82       	std	Y+5, r1	; 0x05
    1876:	1e 82       	std	Y+6, r1	; 0x06
    1878:	1f 82       	std	Y+7, r1	; 0x07
    187a:	f7 01       	movw	r30, r14
    187c:	80 81       	ld	r24, Z
    187e:	81 32       	cpi	r24, 0x21	; 33
    1880:	68 f4       	brcc	.+26     	; 0x189c <follow_path+0x60>
    1882:	ce 01       	movw	r24, r28
    1884:	0e 94 cf 07 	call	0xf9e	; 0xf9e <dir_rewind>
    1888:	b8 2e       	mov	r11, r24
    188a:	e0 91 1e 02 	lds	r30, 0x021E
    188e:	f0 91 1f 02 	lds	r31, 0x021F
    1892:	06 80       	ldd	r0, Z+6	; 0x06
    1894:	f7 81       	ldd	r31, Z+7	; 0x07
    1896:	e0 2d       	mov	r30, r0
    1898:	10 82       	st	Z, r1
    189a:	ab c0       	rjmp	.+342    	; 0x19f2 <follow_path+0x1b6>
    189c:	80 e2       	ldi	r24, 0x20	; 32
    189e:	88 2e       	mov	r8, r24
    18a0:	99 24       	eor	r9, r9
    18a2:	93 94       	inc	r9
    18a4:	aa 81       	ldd	r26, Y+2	; 0x02
    18a6:	bb 81       	ldd	r27, Y+3	; 0x03
    18a8:	fd 01       	movw	r30, r26
    18aa:	8b e0       	ldi	r24, 0x0B	; 11
    18ac:	90 e0       	ldi	r25, 0x00	; 0
    18ae:	01 c0       	rjmp	.+2      	; 0x18b2 <follow_path+0x76>
    18b0:	81 92       	st	Z+, r8
    18b2:	01 97       	sbiw	r24, 0x01	; 1
    18b4:	2f ef       	ldi	r18, 0xFF	; 255
    18b6:	8f 3f       	cpi	r24, 0xFF	; 255
    18b8:	92 07       	cpc	r25, r18
    18ba:	d1 f7       	brne	.-12     	; 0x18b0 <follow_path+0x74>
    18bc:	20 e0       	ldi	r18, 0x00	; 0
    18be:	aa 24       	eor	r10, r10
    18c0:	38 e0       	ldi	r19, 0x08	; 8
    18c2:	02 c0       	rjmp	.+4      	; 0x18c8 <follow_path+0x8c>
    18c4:	28 e0       	ldi	r18, 0x08	; 8
    18c6:	3b e0       	ldi	r19, 0x0B	; 11
    18c8:	f7 01       	movw	r30, r14
    18ca:	ea 0d       	add	r30, r10
    18cc:	f1 1d       	adc	r31, r1
    18ce:	90 81       	ld	r25, Z
    18d0:	a3 94       	inc	r10
    18d2:	91 32       	cpi	r25, 0x21	; 33
    18d4:	b0 f0       	brcs	.+44     	; 0x1902 <follow_path+0xc6>
    18d6:	9f 32       	cpi	r25, 0x2F	; 47
    18d8:	a1 f0       	breq	.+40     	; 0x1902 <follow_path+0xc6>
    18da:	9e 32       	cpi	r25, 0x2E	; 46
    18dc:	11 f0       	breq	.+4      	; 0x18e2 <follow_path+0xa6>
    18de:	23 17       	cp	r18, r19
    18e0:	28 f0       	brcs	.+10     	; 0x18ec <follow_path+0xb0>
    18e2:	38 30       	cpi	r19, 0x08	; 8
    18e4:	71 f4       	brne	.+28     	; 0x1902 <follow_path+0xc6>
    18e6:	9e 32       	cpi	r25, 0x2E	; 46
    18e8:	69 f3       	breq	.-38     	; 0x18c4 <follow_path+0x88>
    18ea:	0b c0       	rjmp	.+22     	; 0x1902 <follow_path+0xc6>
    18ec:	89 2f       	mov	r24, r25
    18ee:	81 56       	subi	r24, 0x61	; 97
    18f0:	8a 31       	cpi	r24, 0x1A	; 26
    18f2:	08 f4       	brcc	.+2      	; 0x18f6 <follow_path+0xba>
    18f4:	90 52       	subi	r25, 0x20	; 32
    18f6:	fd 01       	movw	r30, r26
    18f8:	e2 0f       	add	r30, r18
    18fa:	f1 1d       	adc	r31, r1
    18fc:	90 83       	st	Z, r25
    18fe:	2f 5f       	subi	r18, 0xFF	; 255
    1900:	e3 cf       	rjmp	.-58     	; 0x18c8 <follow_path+0x8c>
    1902:	1b 96       	adiw	r26, 0x0b	; 11
    1904:	1c 92       	st	X, r1
    1906:	1b 97       	sbiw	r26, 0x0b	; 11
    1908:	91 32       	cpi	r25, 0x21	; 33
    190a:	10 f4       	brcc	.+4      	; 0x1910 <follow_path+0xd4>
    190c:	1b 96       	adiw	r26, 0x0b	; 11
    190e:	9c 92       	st	X, r9
    1910:	ce 01       	movw	r24, r28
    1912:	0e 94 cf 07 	call	0xf9e	; 0xf9e <dir_rewind>
    1916:	b8 2e       	mov	r11, r24
    1918:	88 23       	and	r24, r24
    191a:	09 f0       	breq	.+2      	; 0x191e <follow_path+0xe2>
    191c:	3f c0       	rjmp	.+126    	; 0x199c <follow_path+0x160>
    191e:	e0 91 1e 02 	lds	r30, 0x021E
    1922:	f0 91 1f 02 	lds	r31, 0x021F
    1926:	c6 80       	ldd	r12, Z+6	; 0x06
    1928:	d7 80       	ldd	r13, Z+7	; 0x07
    192a:	4c 85       	ldd	r20, Y+12	; 0x0c
    192c:	5d 85       	ldd	r21, Y+13	; 0x0d
    192e:	6e 85       	ldd	r22, Y+14	; 0x0e
    1930:	7f 85       	ldd	r23, Y+15	; 0x0f
    1932:	28 81       	ld	r18, Y
    1934:	39 81       	ldd	r19, Y+1	; 0x01
    1936:	2f 70       	andi	r18, 0x0F	; 15
    1938:	30 70       	andi	r19, 0x00	; 0
    193a:	05 e0       	ldi	r16, 0x05	; 5
    193c:	22 0f       	add	r18, r18
    193e:	33 1f       	adc	r19, r19
    1940:	0a 95       	dec	r16
    1942:	e1 f7       	brne	.-8      	; 0x193c <follow_path+0x100>
    1944:	c6 01       	movw	r24, r12
    1946:	00 e2       	ldi	r16, 0x20	; 32
    1948:	10 e0       	ldi	r17, 0x00	; 0
    194a:	0e 94 18 06 	call	0xc30	; 0xc30 <disk_readp>
    194e:	88 23       	and	r24, r24
    1950:	11 f0       	breq	.+4      	; 0x1956 <follow_path+0x11a>
    1952:	81 e0       	ldi	r24, 0x01	; 1
    1954:	22 c0       	rjmp	.+68     	; 0x199a <follow_path+0x15e>
    1956:	f6 01       	movw	r30, r12
    1958:	80 81       	ld	r24, Z
    195a:	88 23       	and	r24, r24
    195c:	09 f4       	brne	.+2      	; 0x1960 <follow_path+0x124>
    195e:	57 c0       	rjmp	.+174    	; 0x1a0e <follow_path+0x1d2>
    1960:	83 85       	ldd	r24, Z+11	; 0x0b
    1962:	83 fd       	sbrc	r24, 3
    1964:	15 c0       	rjmp	.+42     	; 0x1990 <follow_path+0x154>
    1966:	d6 01       	movw	r26, r12
    1968:	8a 81       	ldd	r24, Y+2	; 0x02
    196a:	9b 81       	ldd	r25, Y+3	; 0x03
    196c:	9c 01       	movw	r18, r24
    196e:	f9 01       	movw	r30, r18
    1970:	2b e0       	ldi	r18, 0x0B	; 11
    1972:	30 e0       	ldi	r19, 0x00	; 0
    1974:	21 50       	subi	r18, 0x01	; 1
    1976:	30 40       	sbci	r19, 0x00	; 0
    1978:	8f ef       	ldi	r24, 0xFF	; 255
    197a:	2f 3f       	cpi	r18, 0xFF	; 255
    197c:	38 07       	cpc	r19, r24
    197e:	09 f4       	brne	.+2      	; 0x1982 <follow_path+0x146>
    1980:	49 c0       	rjmp	.+146    	; 0x1a14 <follow_path+0x1d8>
    1982:	9c 91       	ld	r25, X
    1984:	80 81       	ld	r24, Z
    1986:	98 17       	cp	r25, r24
    1988:	19 f4       	brne	.+6      	; 0x1990 <follow_path+0x154>
    198a:	11 96       	adiw	r26, 0x01	; 1
    198c:	31 96       	adiw	r30, 0x01	; 1
    198e:	f2 cf       	rjmp	.-28     	; 0x1974 <follow_path+0x138>
    1990:	ce 01       	movw	r24, r28
    1992:	0e 94 3a 09 	call	0x1274	; 0x1274 <dir_next>
    1996:	88 23       	and	r24, r24
    1998:	41 f2       	breq	.-112    	; 0x192a <follow_path+0xee>
    199a:	b8 2e       	mov	r11, r24
    199c:	e3 e0       	ldi	r30, 0x03	; 3
    199e:	be 16       	cp	r11, r30
    19a0:	41 f5       	brne	.+80     	; 0x19f2 <follow_path+0x1b6>
    19a2:	ea 81       	ldd	r30, Y+2	; 0x02
    19a4:	fb 81       	ldd	r31, Y+3	; 0x03
    19a6:	83 85       	ldd	r24, Z+11	; 0x0b
    19a8:	88 23       	and	r24, r24
    19aa:	09 f1       	breq	.+66     	; 0x19ee <follow_path+0x1b2>
    19ac:	22 c0       	rjmp	.+68     	; 0x19f2 <follow_path+0x1b6>
    19ae:	e0 91 1e 02 	lds	r30, 0x021E
    19b2:	f0 91 1f 02 	lds	r31, 0x021F
    19b6:	06 80       	ldd	r0, Z+6	; 0x06
    19b8:	f7 81       	ldd	r31, Z+7	; 0x07
    19ba:	e0 2d       	mov	r30, r0
    19bc:	83 85       	ldd	r24, Z+11	; 0x0b
    19be:	84 ff       	sbrs	r24, 4
    19c0:	16 c0       	rjmp	.+44     	; 0x19ee <follow_path+0x1b2>
    19c2:	ea 0c       	add	r14, r10
    19c4:	f1 1c       	adc	r15, r1
    19c6:	84 89       	ldd	r24, Z+20	; 0x14
    19c8:	95 89       	ldd	r25, Z+21	; 0x15
    19ca:	a0 e0       	ldi	r26, 0x00	; 0
    19cc:	b0 e0       	ldi	r27, 0x00	; 0
    19ce:	dc 01       	movw	r26, r24
    19d0:	99 27       	eor	r25, r25
    19d2:	88 27       	eor	r24, r24
    19d4:	22 8d       	ldd	r18, Z+26	; 0x1a
    19d6:	33 8d       	ldd	r19, Z+27	; 0x1b
    19d8:	40 e0       	ldi	r20, 0x00	; 0
    19da:	50 e0       	ldi	r21, 0x00	; 0
    19dc:	82 2b       	or	r24, r18
    19de:	93 2b       	or	r25, r19
    19e0:	a4 2b       	or	r26, r20
    19e2:	b5 2b       	or	r27, r21
    19e4:	8c 83       	std	Y+4, r24	; 0x04
    19e6:	9d 83       	std	Y+5, r25	; 0x05
    19e8:	ae 83       	std	Y+6, r26	; 0x06
    19ea:	bf 83       	std	Y+7, r27	; 0x07
    19ec:	5b cf       	rjmp	.-330    	; 0x18a4 <follow_path+0x68>
    19ee:	a4 e0       	ldi	r26, 0x04	; 4
    19f0:	ba 2e       	mov	r11, r26
    19f2:	8b 2d       	mov	r24, r11
    19f4:	df 91       	pop	r29
    19f6:	cf 91       	pop	r28
    19f8:	1f 91       	pop	r17
    19fa:	0f 91       	pop	r16
    19fc:	ff 90       	pop	r15
    19fe:	ef 90       	pop	r14
    1a00:	df 90       	pop	r13
    1a02:	cf 90       	pop	r12
    1a04:	bf 90       	pop	r11
    1a06:	af 90       	pop	r10
    1a08:	9f 90       	pop	r9
    1a0a:	8f 90       	pop	r8
    1a0c:	08 95       	ret
    1a0e:	f3 e0       	ldi	r31, 0x03	; 3
    1a10:	bf 2e       	mov	r11, r31
    1a12:	c7 cf       	rjmp	.-114    	; 0x19a2 <follow_path+0x166>
    1a14:	ea 81       	ldd	r30, Y+2	; 0x02
    1a16:	fb 81       	ldd	r31, Y+3	; 0x03
    1a18:	83 85       	ldd	r24, Z+11	; 0x0b
    1a1a:	88 23       	and	r24, r24
    1a1c:	41 f2       	breq	.-112    	; 0x19ae <follow_path+0x172>
    1a1e:	e9 cf       	rjmp	.-46     	; 0x19f2 <follow_path+0x1b6>

00001a20 <pf_opendir>:
    1a20:	ef 92       	push	r14
    1a22:	ff 92       	push	r15
    1a24:	0f 93       	push	r16
    1a26:	1f 93       	push	r17
    1a28:	df 93       	push	r29
    1a2a:	cf 93       	push	r28
    1a2c:	cd b7       	in	r28, 0x3d	; 61
    1a2e:	de b7       	in	r29, 0x3e	; 62
    1a30:	ac 97       	sbiw	r28, 0x2c	; 44
    1a32:	0f b6       	in	r0, 0x3f	; 63
    1a34:	f8 94       	cli
    1a36:	de bf       	out	0x3e, r29	; 62
    1a38:	0f be       	out	0x3f, r0	; 63
    1a3a:	cd bf       	out	0x3d, r28	; 61
    1a3c:	8c 01       	movw	r16, r24
    1a3e:	e0 91 1e 02 	lds	r30, 0x021E
    1a42:	f0 91 1f 02 	lds	r31, 0x021F
    1a46:	30 97       	sbiw	r30, 0x00	; 0
    1a48:	11 f4       	brne	.+4      	; 0x1a4e <pf_opendir+0x2e>
    1a4a:	86 e0       	ldi	r24, 0x06	; 6
    1a4c:	32 c0       	rjmp	.+100    	; 0x1ab2 <pf_opendir+0x92>
    1a4e:	3d e0       	ldi	r19, 0x0D	; 13
    1a50:	e3 2e       	mov	r14, r19
    1a52:	f1 2c       	mov	r15, r1
    1a54:	ec 0e       	add	r14, r28
    1a56:	fd 1e       	adc	r15, r29
    1a58:	f7 82       	std	Z+7, r15	; 0x07
    1a5a:	e6 82       	std	Z+6, r14	; 0x06
    1a5c:	ce 01       	movw	r24, r28
    1a5e:	01 96       	adiw	r24, 0x01	; 1
    1a60:	f8 01       	movw	r30, r16
    1a62:	93 83       	std	Z+3, r25	; 0x03
    1a64:	82 83       	std	Z+2, r24	; 0x02
    1a66:	c8 01       	movw	r24, r16
    1a68:	0e 94 1e 0c 	call	0x183c	; 0x183c <follow_path>
    1a6c:	88 23       	and	r24, r24
    1a6e:	f1 f4       	brne	.+60     	; 0x1aac <pf_opendir+0x8c>
    1a70:	8d 85       	ldd	r24, Y+13	; 0x0d
    1a72:	88 23       	and	r24, r24
    1a74:	c1 f0       	breq	.+48     	; 0x1aa6 <pf_opendir+0x86>
    1a76:	88 8d       	ldd	r24, Y+24	; 0x18
    1a78:	84 ff       	sbrs	r24, 4
    1a7a:	1a c0       	rjmp	.+52     	; 0x1ab0 <pf_opendir+0x90>
    1a7c:	f7 01       	movw	r30, r14
    1a7e:	84 89       	ldd	r24, Z+20	; 0x14
    1a80:	95 89       	ldd	r25, Z+21	; 0x15
    1a82:	a0 e0       	ldi	r26, 0x00	; 0
    1a84:	b0 e0       	ldi	r27, 0x00	; 0
    1a86:	dc 01       	movw	r26, r24
    1a88:	99 27       	eor	r25, r25
    1a8a:	88 27       	eor	r24, r24
    1a8c:	22 8d       	ldd	r18, Z+26	; 0x1a
    1a8e:	33 8d       	ldd	r19, Z+27	; 0x1b
    1a90:	40 e0       	ldi	r20, 0x00	; 0
    1a92:	50 e0       	ldi	r21, 0x00	; 0
    1a94:	82 2b       	or	r24, r18
    1a96:	93 2b       	or	r25, r19
    1a98:	a4 2b       	or	r26, r20
    1a9a:	b5 2b       	or	r27, r21
    1a9c:	f8 01       	movw	r30, r16
    1a9e:	84 83       	std	Z+4, r24	; 0x04
    1aa0:	95 83       	std	Z+5, r25	; 0x05
    1aa2:	a6 83       	std	Z+6, r26	; 0x06
    1aa4:	b7 83       	std	Z+7, r27	; 0x07
    1aa6:	c8 01       	movw	r24, r16
    1aa8:	0e 94 cf 07 	call	0xf9e	; 0xf9e <dir_rewind>
    1aac:	83 30       	cpi	r24, 0x03	; 3
    1aae:	09 f4       	brne	.+2      	; 0x1ab2 <pf_opendir+0x92>
    1ab0:	84 e0       	ldi	r24, 0x04	; 4
    1ab2:	ac 96       	adiw	r28, 0x2c	; 44
    1ab4:	0f b6       	in	r0, 0x3f	; 63
    1ab6:	f8 94       	cli
    1ab8:	de bf       	out	0x3e, r29	; 62
    1aba:	0f be       	out	0x3f, r0	; 63
    1abc:	cd bf       	out	0x3d, r28	; 61
    1abe:	cf 91       	pop	r28
    1ac0:	df 91       	pop	r29
    1ac2:	1f 91       	pop	r17
    1ac4:	0f 91       	pop	r16
    1ac6:	ff 90       	pop	r15
    1ac8:	ef 90       	pop	r14
    1aca:	08 95       	ret

00001acc <pf_open>:
    1acc:	ef 92       	push	r14
    1ace:	ff 92       	push	r15
    1ad0:	0f 93       	push	r16
    1ad2:	1f 93       	push	r17
    1ad4:	df 93       	push	r29
    1ad6:	cf 93       	push	r28
    1ad8:	cd b7       	in	r28, 0x3d	; 61
    1ada:	de b7       	in	r29, 0x3e	; 62
    1adc:	ec 97       	sbiw	r28, 0x3c	; 60
    1ade:	0f b6       	in	r0, 0x3f	; 63
    1ae0:	f8 94       	cli
    1ae2:	de bf       	out	0x3e, r29	; 62
    1ae4:	0f be       	out	0x3f, r0	; 63
    1ae6:	cd bf       	out	0x3d, r28	; 61
    1ae8:	bc 01       	movw	r22, r24
    1aea:	00 91 1e 02 	lds	r16, 0x021E
    1aee:	10 91 1f 02 	lds	r17, 0x021F
    1af2:	01 15       	cp	r16, r1
    1af4:	11 05       	cpc	r17, r1
    1af6:	11 f4       	brne	.+4      	; 0x1afc <pf_open+0x30>
    1af8:	66 e0       	ldi	r22, 0x06	; 6
    1afa:	41 c0       	rjmp	.+130    	; 0x1b7e <pf_open+0xb2>
    1afc:	f8 01       	movw	r30, r16
    1afe:	12 82       	std	Z+2, r1	; 0x02
    1b00:	5d e1       	ldi	r21, 0x1D	; 29
    1b02:	e5 2e       	mov	r14, r21
    1b04:	f1 2c       	mov	r15, r1
    1b06:	ec 0e       	add	r14, r28
    1b08:	fd 1e       	adc	r15, r29
    1b0a:	f7 82       	std	Z+7, r15	; 0x07
    1b0c:	e6 82       	std	Z+6, r14	; 0x06
    1b0e:	ce 01       	movw	r24, r28
    1b10:	01 96       	adiw	r24, 0x01	; 1
    1b12:	98 8b       	std	Y+16, r25	; 0x10
    1b14:	8f 87       	std	Y+15, r24	; 0x0f
    1b16:	ce 01       	movw	r24, r28
    1b18:	0d 96       	adiw	r24, 0x0d	; 13
    1b1a:	0e 94 1e 0c 	call	0x183c	; 0x183c <follow_path>
    1b1e:	68 2f       	mov	r22, r24
    1b20:	88 23       	and	r24, r24
    1b22:	69 f5       	brne	.+90     	; 0x1b7e <pf_open+0xb2>
    1b24:	8d 8d       	ldd	r24, Y+29	; 0x1d
    1b26:	88 23       	and	r24, r24
    1b28:	49 f1       	breq	.+82     	; 0x1b7c <pf_open+0xb0>
    1b2a:	88 a5       	ldd	r24, Y+40	; 0x28
    1b2c:	84 fd       	sbrc	r24, 4
    1b2e:	26 c0       	rjmp	.+76     	; 0x1b7c <pf_open+0xb0>
    1b30:	f7 01       	movw	r30, r14
    1b32:	84 89       	ldd	r24, Z+20	; 0x14
    1b34:	95 89       	ldd	r25, Z+21	; 0x15
    1b36:	a0 e0       	ldi	r26, 0x00	; 0
    1b38:	b0 e0       	ldi	r27, 0x00	; 0
    1b3a:	dc 01       	movw	r26, r24
    1b3c:	99 27       	eor	r25, r25
    1b3e:	88 27       	eor	r24, r24
    1b40:	22 8d       	ldd	r18, Z+26	; 0x1a
    1b42:	33 8d       	ldd	r19, Z+27	; 0x1b
    1b44:	40 e0       	ldi	r20, 0x00	; 0
    1b46:	50 e0       	ldi	r21, 0x00	; 0
    1b48:	82 2b       	or	r24, r18
    1b4a:	93 2b       	or	r25, r19
    1b4c:	a4 2b       	or	r26, r20
    1b4e:	b5 2b       	or	r27, r21
    1b50:	f8 01       	movw	r30, r16
    1b52:	80 a3       	std	Z+32, r24	; 0x20
    1b54:	91 a3       	std	Z+33, r25	; 0x21
    1b56:	a2 a3       	std	Z+34, r26	; 0x22
    1b58:	b3 a3       	std	Z+35, r27	; 0x23
    1b5a:	f7 01       	movw	r30, r14
    1b5c:	84 8d       	ldd	r24, Z+28	; 0x1c
    1b5e:	95 8d       	ldd	r25, Z+29	; 0x1d
    1b60:	a6 8d       	ldd	r26, Z+30	; 0x1e
    1b62:	b7 8d       	ldd	r27, Z+31	; 0x1f
    1b64:	f8 01       	movw	r30, r16
    1b66:	84 8f       	std	Z+28, r24	; 0x1c
    1b68:	95 8f       	std	Z+29, r25	; 0x1d
    1b6a:	a6 8f       	std	Z+30, r26	; 0x1e
    1b6c:	b7 8f       	std	Z+31, r27	; 0x1f
    1b6e:	10 8e       	std	Z+24, r1	; 0x18
    1b70:	11 8e       	std	Z+25, r1	; 0x19
    1b72:	12 8e       	std	Z+26, r1	; 0x1a
    1b74:	13 8e       	std	Z+27, r1	; 0x1b
    1b76:	81 e0       	ldi	r24, 0x01	; 1
    1b78:	82 83       	std	Z+2, r24	; 0x02
    1b7a:	01 c0       	rjmp	.+2      	; 0x1b7e <pf_open+0xb2>
    1b7c:	63 e0       	ldi	r22, 0x03	; 3
    1b7e:	86 2f       	mov	r24, r22
    1b80:	ec 96       	adiw	r28, 0x3c	; 60
    1b82:	0f b6       	in	r0, 0x3f	; 63
    1b84:	f8 94       	cli
    1b86:	de bf       	out	0x3e, r29	; 62
    1b88:	0f be       	out	0x3f, r0	; 63
    1b8a:	cd bf       	out	0x3d, r28	; 61
    1b8c:	cf 91       	pop	r28
    1b8e:	df 91       	pop	r29
    1b90:	1f 91       	pop	r17
    1b92:	0f 91       	pop	r16
    1b94:	ff 90       	pop	r15
    1b96:	ef 90       	pop	r14
    1b98:	08 95       	ret

00001b9a <pf_read>:
    1b9a:	4f 92       	push	r4
    1b9c:	5f 92       	push	r5
    1b9e:	6f 92       	push	r6
    1ba0:	7f 92       	push	r7
    1ba2:	8f 92       	push	r8
    1ba4:	9f 92       	push	r9
    1ba6:	af 92       	push	r10
    1ba8:	bf 92       	push	r11
    1baa:	cf 92       	push	r12
    1bac:	df 92       	push	r13
    1bae:	ef 92       	push	r14
    1bb0:	ff 92       	push	r15
    1bb2:	0f 93       	push	r16
    1bb4:	1f 93       	push	r17
    1bb6:	cf 93       	push	r28
    1bb8:	df 93       	push	r29
    1bba:	3c 01       	movw	r6, r24
    1bbc:	6b 01       	movw	r12, r22
    1bbe:	4a 01       	movw	r8, r20
    1bc0:	c0 91 1e 02 	lds	r28, 0x021E
    1bc4:	d0 91 1f 02 	lds	r29, 0x021F
    1bc8:	fa 01       	movw	r30, r20
    1bca:	11 82       	std	Z+1, r1	; 0x01
    1bcc:	10 82       	st	Z, r1
    1bce:	20 97       	sbiw	r28, 0x00	; 0
    1bd0:	11 f4       	brne	.+4      	; 0x1bd6 <pf_read+0x3c>
    1bd2:	86 e0       	ldi	r24, 0x06	; 6
    1bd4:	da c0       	rjmp	.+436    	; 0x1d8a <pf_read+0x1f0>
    1bd6:	8a 81       	ldd	r24, Y+2	; 0x02
    1bd8:	80 fd       	sbrc	r24, 0
    1bda:	02 c0       	rjmp	.+4      	; 0x1be0 <pf_read+0x46>
    1bdc:	85 e0       	ldi	r24, 0x05	; 5
    1bde:	d5 c0       	rjmp	.+426    	; 0x1d8a <pf_read+0x1f0>
    1be0:	2c 8d       	ldd	r18, Y+28	; 0x1c
    1be2:	3d 8d       	ldd	r19, Y+29	; 0x1d
    1be4:	4e 8d       	ldd	r20, Y+30	; 0x1e
    1be6:	5f 8d       	ldd	r21, Y+31	; 0x1f
    1be8:	88 8d       	ldd	r24, Y+24	; 0x18
    1bea:	99 8d       	ldd	r25, Y+25	; 0x19
    1bec:	aa 8d       	ldd	r26, Y+26	; 0x1a
    1bee:	bb 8d       	ldd	r27, Y+27	; 0x1b
    1bf0:	28 1b       	sub	r18, r24
    1bf2:	39 0b       	sbc	r19, r25
    1bf4:	4a 0b       	sbc	r20, r26
    1bf6:	5b 0b       	sbc	r21, r27
    1bf8:	cb 01       	movw	r24, r22
    1bfa:	a0 e0       	ldi	r26, 0x00	; 0
    1bfc:	b0 e0       	ldi	r27, 0x00	; 0
    1bfe:	28 17       	cp	r18, r24
    1c00:	39 07       	cpc	r19, r25
    1c02:	4a 07       	cpc	r20, r26
    1c04:	5b 07       	cpc	r21, r27
    1c06:	08 f4       	brcc	.+2      	; 0x1c0a <pf_read+0x70>
    1c08:	69 01       	movw	r12, r18
    1c0a:	53 01       	movw	r10, r6
    1c0c:	41 2c       	mov	r4, r1
    1c0e:	f2 e0       	ldi	r31, 0x02	; 2
    1c10:	5f 2e       	mov	r5, r31
    1c12:	b3 c0       	rjmp	.+358    	; 0x1d7a <pf_read+0x1e0>
    1c14:	e8 8c       	ldd	r14, Y+24	; 0x18
    1c16:	f9 8c       	ldd	r15, Y+25	; 0x19
    1c18:	0a 8d       	ldd	r16, Y+26	; 0x1a
    1c1a:	1b 8d       	ldd	r17, Y+27	; 0x1b
    1c1c:	d8 01       	movw	r26, r16
    1c1e:	c7 01       	movw	r24, r14
    1c20:	91 70       	andi	r25, 0x01	; 1
    1c22:	a0 70       	andi	r26, 0x00	; 0
    1c24:	b0 70       	andi	r27, 0x00	; 0
    1c26:	00 97       	sbiw	r24, 0x00	; 0
    1c28:	a1 05       	cpc	r26, r1
    1c2a:	b1 05       	cpc	r27, r1
    1c2c:	09 f0       	breq	.+2      	; 0x1c30 <pf_read+0x96>
    1c2e:	6b c0       	rjmp	.+214    	; 0x1d06 <pf_read+0x16c>
    1c30:	c8 01       	movw	r24, r16
    1c32:	b7 01       	movw	r22, r14
    1c34:	e9 e0       	ldi	r30, 0x09	; 9
    1c36:	96 95       	lsr	r25
    1c38:	87 95       	ror	r24
    1c3a:	77 95       	ror	r23
    1c3c:	67 95       	ror	r22
    1c3e:	ea 95       	dec	r30
    1c40:	d1 f7       	brne	.-12     	; 0x1c36 <pf_read+0x9c>
    1c42:	29 81       	ldd	r18, Y+1	; 0x01
    1c44:	30 e0       	ldi	r19, 0x00	; 0
    1c46:	40 e0       	ldi	r20, 0x00	; 0
    1c48:	50 e0       	ldi	r21, 0x00	; 0
    1c4a:	0e 94 71 18 	call	0x30e2	; 0x30e2 <__udivmodsi4>
    1c4e:	61 15       	cp	r22, r1
    1c50:	71 05       	cpc	r23, r1
    1c52:	81 05       	cpc	r24, r1
    1c54:	91 05       	cpc	r25, r1
    1c56:	d9 f4       	brne	.+54     	; 0x1c8e <pf_read+0xf4>
    1c58:	e1 14       	cp	r14, r1
    1c5a:	f1 04       	cpc	r15, r1
    1c5c:	01 05       	cpc	r16, r1
    1c5e:	11 05       	cpc	r17, r1
    1c60:	29 f4       	brne	.+10     	; 0x1c6c <pf_read+0xd2>
    1c62:	68 a1       	ldd	r22, Y+32	; 0x20
    1c64:	79 a1       	ldd	r23, Y+33	; 0x21
    1c66:	8a a1       	ldd	r24, Y+34	; 0x22
    1c68:	9b a1       	ldd	r25, Y+35	; 0x23
    1c6a:	06 c0       	rjmp	.+12     	; 0x1c78 <pf_read+0xde>
    1c6c:	6c a1       	ldd	r22, Y+36	; 0x24
    1c6e:	7d a1       	ldd	r23, Y+37	; 0x25
    1c70:	8e a1       	ldd	r24, Y+38	; 0x26
    1c72:	9f a1       	ldd	r25, Y+39	; 0x27
    1c74:	0e 94 4e 08 	call	0x109c	; 0x109c <get_fat>
    1c78:	62 30       	cpi	r22, 0x02	; 2
    1c7a:	71 05       	cpc	r23, r1
    1c7c:	81 05       	cpc	r24, r1
    1c7e:	91 05       	cpc	r25, r1
    1c80:	08 f4       	brcc	.+2      	; 0x1c84 <pf_read+0xea>
    1c82:	81 c0       	rjmp	.+258    	; 0x1d86 <pf_read+0x1ec>
    1c84:	6c a3       	std	Y+36, r22	; 0x24
    1c86:	7d a3       	std	Y+37, r23	; 0x25
    1c88:	8e a3       	std	Y+38, r24	; 0x26
    1c8a:	9f a3       	std	Y+39, r25	; 0x27
    1c8c:	1b 82       	std	Y+3, r1	; 0x03
    1c8e:	00 91 1e 02 	lds	r16, 0x021E
    1c92:	10 91 1f 02 	lds	r17, 0x021F
    1c96:	2c a1       	ldd	r18, Y+36	; 0x24
    1c98:	3d a1       	ldd	r19, Y+37	; 0x25
    1c9a:	4e a1       	ldd	r20, Y+38	; 0x26
    1c9c:	5f a1       	ldd	r21, Y+39	; 0x27
    1c9e:	22 50       	subi	r18, 0x02	; 2
    1ca0:	30 40       	sbci	r19, 0x00	; 0
    1ca2:	40 40       	sbci	r20, 0x00	; 0
    1ca4:	50 40       	sbci	r21, 0x00	; 0
    1ca6:	f8 01       	movw	r30, r16
    1ca8:	80 85       	ldd	r24, Z+8	; 0x08
    1caa:	91 85       	ldd	r25, Z+9	; 0x09
    1cac:	a2 85       	ldd	r26, Z+10	; 0x0a
    1cae:	b3 85       	ldd	r27, Z+11	; 0x0b
    1cb0:	02 97       	sbiw	r24, 0x02	; 2
    1cb2:	a1 09       	sbc	r26, r1
    1cb4:	b1 09       	sbc	r27, r1
    1cb6:	28 17       	cp	r18, r24
    1cb8:	39 07       	cpc	r19, r25
    1cba:	4a 07       	cpc	r20, r26
    1cbc:	5b 07       	cpc	r21, r27
    1cbe:	08 f0       	brcs	.+2      	; 0x1cc2 <pf_read+0x128>
    1cc0:	62 c0       	rjmp	.+196    	; 0x1d86 <pf_read+0x1ec>
    1cc2:	61 81       	ldd	r22, Z+1	; 0x01
    1cc4:	70 e0       	ldi	r23, 0x00	; 0
    1cc6:	80 e0       	ldi	r24, 0x00	; 0
    1cc8:	90 e0       	ldi	r25, 0x00	; 0
    1cca:	0e 94 46 18 	call	0x308c	; 0x308c <__mulsi3>
    1cce:	9b 01       	movw	r18, r22
    1cd0:	ac 01       	movw	r20, r24
    1cd2:	f8 01       	movw	r30, r16
    1cd4:	84 89       	ldd	r24, Z+20	; 0x14
    1cd6:	95 89       	ldd	r25, Z+21	; 0x15
    1cd8:	a6 89       	ldd	r26, Z+22	; 0x16
    1cda:	b7 89       	ldd	r27, Z+23	; 0x17
    1cdc:	28 0f       	add	r18, r24
    1cde:	39 1f       	adc	r19, r25
    1ce0:	4a 1f       	adc	r20, r26
    1ce2:	5b 1f       	adc	r21, r27
    1ce4:	21 15       	cp	r18, r1
    1ce6:	31 05       	cpc	r19, r1
    1ce8:	41 05       	cpc	r20, r1
    1cea:	51 05       	cpc	r21, r1
    1cec:	09 f4       	brne	.+2      	; 0x1cf0 <pf_read+0x156>
    1cee:	4b c0       	rjmp	.+150    	; 0x1d86 <pf_read+0x1ec>
    1cf0:	8b 81       	ldd	r24, Y+3	; 0x03
    1cf2:	28 0f       	add	r18, r24
    1cf4:	31 1d       	adc	r19, r1
    1cf6:	41 1d       	adc	r20, r1
    1cf8:	51 1d       	adc	r21, r1
    1cfa:	28 a7       	std	Y+40, r18	; 0x28
    1cfc:	39 a7       	std	Y+41, r19	; 0x29
    1cfe:	4a a7       	std	Y+42, r20	; 0x2a
    1d00:	5b a7       	std	Y+43, r21	; 0x2b
    1d02:	8f 5f       	subi	r24, 0xFF	; 255
    1d04:	8b 83       	std	Y+3, r24	; 0x03
    1d06:	08 8d       	ldd	r16, Y+24	; 0x18
    1d08:	19 8d       	ldd	r17, Y+25	; 0x19
    1d0a:	2a 8d       	ldd	r18, Y+26	; 0x1a
    1d0c:	3b 8d       	ldd	r19, Y+27	; 0x1b
    1d0e:	c8 01       	movw	r24, r16
    1d10:	91 70       	andi	r25, 0x01	; 1
    1d12:	a2 01       	movw	r20, r4
    1d14:	48 1b       	sub	r20, r24
    1d16:	59 0b       	sbc	r21, r25
    1d18:	76 01       	movw	r14, r12
    1d1a:	4c 15       	cp	r20, r12
    1d1c:	5d 05       	cpc	r21, r13
    1d1e:	08 f4       	brcc	.+2      	; 0x1d22 <pf_read+0x188>
    1d20:	7a 01       	movw	r14, r20
    1d22:	61 14       	cp	r6, r1
    1d24:	71 04       	cpc	r7, r1
    1d26:	19 f4       	brne	.+6      	; 0x1d2e <pf_read+0x194>
    1d28:	80 e0       	ldi	r24, 0x00	; 0
    1d2a:	90 e0       	ldi	r25, 0x00	; 0
    1d2c:	01 c0       	rjmp	.+2      	; 0x1d30 <pf_read+0x196>
    1d2e:	c5 01       	movw	r24, r10
    1d30:	48 a5       	ldd	r20, Y+40	; 0x28
    1d32:	59 a5       	ldd	r21, Y+41	; 0x29
    1d34:	6a a5       	ldd	r22, Y+42	; 0x2a
    1d36:	7b a5       	ldd	r23, Y+43	; 0x2b
    1d38:	98 01       	movw	r18, r16
    1d3a:	31 70       	andi	r19, 0x01	; 1
    1d3c:	87 01       	movw	r16, r14
    1d3e:	0e 94 18 06 	call	0xc30	; 0xc30 <disk_readp>
    1d42:	88 23       	and	r24, r24
    1d44:	01 f5       	brne	.+64     	; 0x1d86 <pf_read+0x1ec>
    1d46:	c7 01       	movw	r24, r14
    1d48:	a0 e0       	ldi	r26, 0x00	; 0
    1d4a:	b0 e0       	ldi	r27, 0x00	; 0
    1d4c:	28 8d       	ldd	r18, Y+24	; 0x18
    1d4e:	39 8d       	ldd	r19, Y+25	; 0x19
    1d50:	4a 8d       	ldd	r20, Y+26	; 0x1a
    1d52:	5b 8d       	ldd	r21, Y+27	; 0x1b
    1d54:	28 0f       	add	r18, r24
    1d56:	39 1f       	adc	r19, r25
    1d58:	4a 1f       	adc	r20, r26
    1d5a:	5b 1f       	adc	r21, r27
    1d5c:	28 8f       	std	Y+24, r18	; 0x18
    1d5e:	39 8f       	std	Y+25, r19	; 0x19
    1d60:	4a 8f       	std	Y+26, r20	; 0x1a
    1d62:	5b 8f       	std	Y+27, r21	; 0x1b
    1d64:	ae 0c       	add	r10, r14
    1d66:	bf 1c       	adc	r11, r15
    1d68:	ce 18       	sub	r12, r14
    1d6a:	df 08       	sbc	r13, r15
    1d6c:	f4 01       	movw	r30, r8
    1d6e:	80 81       	ld	r24, Z
    1d70:	91 81       	ldd	r25, Z+1	; 0x01
    1d72:	8e 0d       	add	r24, r14
    1d74:	9f 1d       	adc	r25, r15
    1d76:	91 83       	std	Z+1, r25	; 0x01
    1d78:	80 83       	st	Z, r24
    1d7a:	c1 14       	cp	r12, r1
    1d7c:	d1 04       	cpc	r13, r1
    1d7e:	09 f0       	breq	.+2      	; 0x1d82 <pf_read+0x1e8>
    1d80:	49 cf       	rjmp	.-366    	; 0x1c14 <pf_read+0x7a>
    1d82:	80 e0       	ldi	r24, 0x00	; 0
    1d84:	02 c0       	rjmp	.+4      	; 0x1d8a <pf_read+0x1f0>
    1d86:	1a 82       	std	Y+2, r1	; 0x02
    1d88:	81 e0       	ldi	r24, 0x01	; 1
    1d8a:	df 91       	pop	r29
    1d8c:	cf 91       	pop	r28
    1d8e:	1f 91       	pop	r17
    1d90:	0f 91       	pop	r16
    1d92:	ff 90       	pop	r15
    1d94:	ef 90       	pop	r14
    1d96:	df 90       	pop	r13
    1d98:	cf 90       	pop	r12
    1d9a:	bf 90       	pop	r11
    1d9c:	af 90       	pop	r10
    1d9e:	9f 90       	pop	r9
    1da0:	8f 90       	pop	r8
    1da2:	7f 90       	pop	r7
    1da4:	6f 90       	pop	r6
    1da6:	5f 90       	pop	r5
    1da8:	4f 90       	pop	r4
    1daa:	08 95       	ret

00001dac <check_fs>:
    1dac:	af 92       	push	r10
    1dae:	bf 92       	push	r11
    1db0:	cf 92       	push	r12
    1db2:	df 92       	push	r13
    1db4:	ef 92       	push	r14
    1db6:	ff 92       	push	r15
    1db8:	0f 93       	push	r16
    1dba:	1f 93       	push	r17
    1dbc:	cf 93       	push	r28
    1dbe:	df 93       	push	r29
    1dc0:	b8 2e       	mov	r11, r24
    1dc2:	a9 2e       	mov	r10, r25
    1dc4:	6a 01       	movw	r12, r20
    1dc6:	7b 01       	movw	r14, r22
    1dc8:	2e ef       	ldi	r18, 0xFE	; 254
    1dca:	31 e0       	ldi	r19, 0x01	; 1
    1dcc:	02 e0       	ldi	r16, 0x02	; 2
    1dce:	10 e0       	ldi	r17, 0x00	; 0
    1dd0:	0e 94 18 06 	call	0xc30	; 0xc30 <disk_readp>
    1dd4:	88 23       	and	r24, r24
    1dd6:	11 f0       	breq	.+4      	; 0x1ddc <check_fs+0x30>
    1dd8:	23 e0       	ldi	r18, 0x03	; 3
    1dda:	33 c0       	rjmp	.+102    	; 0x1e42 <check_fs+0x96>
    1ddc:	cb 2d       	mov	r28, r11
    1dde:	da 2d       	mov	r29, r10
    1de0:	88 81       	ld	r24, Y
    1de2:	99 81       	ldd	r25, Y+1	; 0x01
    1de4:	85 55       	subi	r24, 0x55	; 85
    1de6:	9a 4a       	sbci	r25, 0xAA	; 170
    1de8:	11 f0       	breq	.+4      	; 0x1dee <check_fs+0x42>
    1dea:	22 e0       	ldi	r18, 0x02	; 2
    1dec:	2a c0       	rjmp	.+84     	; 0x1e42 <check_fs+0x96>
    1dee:	8b 2d       	mov	r24, r11
    1df0:	9a 2d       	mov	r25, r10
    1df2:	b7 01       	movw	r22, r14
    1df4:	a6 01       	movw	r20, r12
    1df6:	26 e3       	ldi	r18, 0x36	; 54
    1df8:	30 e0       	ldi	r19, 0x00	; 0
    1dfa:	02 e0       	ldi	r16, 0x02	; 2
    1dfc:	10 e0       	ldi	r17, 0x00	; 0
    1dfe:	0e 94 18 06 	call	0xc30	; 0xc30 <disk_readp>
    1e02:	88 23       	and	r24, r24
    1e04:	39 f4       	brne	.+14     	; 0x1e14 <check_fs+0x68>
    1e06:	88 81       	ld	r24, Y
    1e08:	99 81       	ldd	r25, Y+1	; 0x01
    1e0a:	86 54       	subi	r24, 0x46	; 70
    1e0c:	91 44       	sbci	r25, 0x41	; 65
    1e0e:	11 f4       	brne	.+4      	; 0x1e14 <check_fs+0x68>
    1e10:	20 e0       	ldi	r18, 0x00	; 0
    1e12:	17 c0       	rjmp	.+46     	; 0x1e42 <check_fs+0x96>
    1e14:	8b 2d       	mov	r24, r11
    1e16:	9a 2d       	mov	r25, r10
    1e18:	b7 01       	movw	r22, r14
    1e1a:	a6 01       	movw	r20, r12
    1e1c:	22 e5       	ldi	r18, 0x52	; 82
    1e1e:	30 e0       	ldi	r19, 0x00	; 0
    1e20:	02 e0       	ldi	r16, 0x02	; 2
    1e22:	10 e0       	ldi	r17, 0x00	; 0
    1e24:	0e 94 18 06 	call	0xc30	; 0xc30 <disk_readp>
    1e28:	88 23       	and	r24, r24
    1e2a:	11 f0       	breq	.+4      	; 0x1e30 <check_fs+0x84>
    1e2c:	21 e0       	ldi	r18, 0x01	; 1
    1e2e:	09 c0       	rjmp	.+18     	; 0x1e42 <check_fs+0x96>
    1e30:	20 e0       	ldi	r18, 0x00	; 0
    1e32:	88 81       	ld	r24, Y
    1e34:	99 81       	ldd	r25, Y+1	; 0x01
    1e36:	86 54       	subi	r24, 0x46	; 70
    1e38:	91 44       	sbci	r25, 0x41	; 65
    1e3a:	09 f4       	brne	.+2      	; 0x1e3e <check_fs+0x92>
    1e3c:	21 e0       	ldi	r18, 0x01	; 1
    1e3e:	81 e0       	ldi	r24, 0x01	; 1
    1e40:	28 27       	eor	r18, r24
    1e42:	82 2f       	mov	r24, r18
    1e44:	df 91       	pop	r29
    1e46:	cf 91       	pop	r28
    1e48:	1f 91       	pop	r17
    1e4a:	0f 91       	pop	r16
    1e4c:	ff 90       	pop	r15
    1e4e:	ef 90       	pop	r14
    1e50:	df 90       	pop	r13
    1e52:	cf 90       	pop	r12
    1e54:	bf 90       	pop	r11
    1e56:	af 90       	pop	r10
    1e58:	08 95       	ret

00001e5a <pf_write>:
    1e5a:	4f 92       	push	r4
    1e5c:	5f 92       	push	r5
    1e5e:	6f 92       	push	r6
    1e60:	7f 92       	push	r7
    1e62:	8f 92       	push	r8
    1e64:	9f 92       	push	r9
    1e66:	af 92       	push	r10
    1e68:	bf 92       	push	r11
    1e6a:	cf 92       	push	r12
    1e6c:	df 92       	push	r13
    1e6e:	ef 92       	push	r14
    1e70:	ff 92       	push	r15
    1e72:	0f 93       	push	r16
    1e74:	1f 93       	push	r17
    1e76:	cf 93       	push	r28
    1e78:	df 93       	push	r29
    1e7a:	fc 01       	movw	r30, r24
    1e7c:	5b 01       	movw	r10, r22
    1e7e:	3a 01       	movw	r6, r20
    1e80:	c0 91 1e 02 	lds	r28, 0x021E
    1e84:	d0 91 1f 02 	lds	r29, 0x021F
    1e88:	da 01       	movw	r26, r20
    1e8a:	1d 92       	st	X+, r1
    1e8c:	1c 92       	st	X, r1
    1e8e:	20 97       	sbiw	r28, 0x00	; 0
    1e90:	11 f4       	brne	.+4      	; 0x1e96 <pf_write+0x3c>
    1e92:	86 e0       	ldi	r24, 0x06	; 6
    1e94:	08 c1       	rjmp	.+528    	; 0x20a6 <pf_write+0x24c>
    1e96:	8a 81       	ldd	r24, Y+2	; 0x02
    1e98:	90 e0       	ldi	r25, 0x00	; 0
    1e9a:	80 fd       	sbrc	r24, 0
    1e9c:	02 c0       	rjmp	.+4      	; 0x1ea2 <pf_write+0x48>
    1e9e:	85 e0       	ldi	r24, 0x05	; 5
    1ea0:	02 c1       	rjmp	.+516    	; 0x20a6 <pf_write+0x24c>
    1ea2:	80 74       	andi	r24, 0x40	; 64
    1ea4:	90 70       	andi	r25, 0x00	; 0
    1ea6:	61 15       	cp	r22, r1
    1ea8:	71 05       	cpc	r23, r1
    1eaa:	89 f4       	brne	.+34     	; 0x1ece <pf_write+0x74>
    1eac:	89 2b       	or	r24, r25
    1eae:	59 f0       	breq	.+22     	; 0x1ec6 <pf_write+0x6c>
    1eb0:	80 e0       	ldi	r24, 0x00	; 0
    1eb2:	90 e0       	ldi	r25, 0x00	; 0
    1eb4:	40 e0       	ldi	r20, 0x00	; 0
    1eb6:	50 e0       	ldi	r21, 0x00	; 0
    1eb8:	60 e0       	ldi	r22, 0x00	; 0
    1eba:	70 e0       	ldi	r23, 0x00	; 0
    1ebc:	0e 94 7a 06 	call	0xcf4	; 0xcf4 <disk_writep>
    1ec0:	88 23       	and	r24, r24
    1ec2:	09 f0       	breq	.+2      	; 0x1ec6 <pf_write+0x6c>
    1ec4:	ee c0       	rjmp	.+476    	; 0x20a2 <pf_write+0x248>
    1ec6:	8a 81       	ldd	r24, Y+2	; 0x02
    1ec8:	8f 7b       	andi	r24, 0xBF	; 191
    1eca:	8a 83       	std	Y+2, r24	; 0x02
    1ecc:	e8 c0       	rjmp	.+464    	; 0x209e <pf_write+0x244>
    1ece:	89 2b       	or	r24, r25
    1ed0:	51 f4       	brne	.+20     	; 0x1ee6 <pf_write+0x8c>
    1ed2:	88 8d       	ldd	r24, Y+24	; 0x18
    1ed4:	99 8d       	ldd	r25, Y+25	; 0x19
    1ed6:	aa 8d       	ldd	r26, Y+26	; 0x1a
    1ed8:	bb 8d       	ldd	r27, Y+27	; 0x1b
    1eda:	80 70       	andi	r24, 0x00	; 0
    1edc:	9e 7f       	andi	r25, 0xFE	; 254
    1ede:	88 8f       	std	Y+24, r24	; 0x18
    1ee0:	99 8f       	std	Y+25, r25	; 0x19
    1ee2:	aa 8f       	std	Y+26, r26	; 0x1a
    1ee4:	bb 8f       	std	Y+27, r27	; 0x1b
    1ee6:	2c 8d       	ldd	r18, Y+28	; 0x1c
    1ee8:	3d 8d       	ldd	r19, Y+29	; 0x1d
    1eea:	4e 8d       	ldd	r20, Y+30	; 0x1e
    1eec:	5f 8d       	ldd	r21, Y+31	; 0x1f
    1eee:	88 8d       	ldd	r24, Y+24	; 0x18
    1ef0:	99 8d       	ldd	r25, Y+25	; 0x19
    1ef2:	aa 8d       	ldd	r26, Y+26	; 0x1a
    1ef4:	bb 8d       	ldd	r27, Y+27	; 0x1b
    1ef6:	28 1b       	sub	r18, r24
    1ef8:	39 0b       	sbc	r19, r25
    1efa:	4a 0b       	sbc	r20, r26
    1efc:	5b 0b       	sbc	r21, r27
    1efe:	c5 01       	movw	r24, r10
    1f00:	a0 e0       	ldi	r26, 0x00	; 0
    1f02:	b0 e0       	ldi	r27, 0x00	; 0
    1f04:	28 17       	cp	r18, r24
    1f06:	39 07       	cpc	r19, r25
    1f08:	4a 07       	cpc	r20, r26
    1f0a:	5b 07       	cpc	r21, r27
    1f0c:	08 f4       	brcc	.+2      	; 0x1f10 <pf_write+0xb6>
    1f0e:	59 01       	movw	r10, r18
    1f10:	4f 01       	movw	r8, r30
    1f12:	41 2c       	mov	r4, r1
    1f14:	b2 e0       	ldi	r27, 0x02	; 2
    1f16:	5b 2e       	mov	r5, r27
    1f18:	be c0       	rjmp	.+380    	; 0x2096 <pf_write+0x23c>
    1f1a:	e8 8c       	ldd	r14, Y+24	; 0x18
    1f1c:	f9 8c       	ldd	r15, Y+25	; 0x19
    1f1e:	0a 8d       	ldd	r16, Y+26	; 0x1a
    1f20:	1b 8d       	ldd	r17, Y+27	; 0x1b
    1f22:	c7 01       	movw	r24, r14
    1f24:	91 70       	andi	r25, 0x01	; 1
    1f26:	89 2b       	or	r24, r25
    1f28:	09 f0       	breq	.+2      	; 0x1f2c <pf_write+0xd2>
    1f2a:	77 c0       	rjmp	.+238    	; 0x201a <pf_write+0x1c0>
    1f2c:	c8 01       	movw	r24, r16
    1f2e:	b7 01       	movw	r22, r14
    1f30:	a9 e0       	ldi	r26, 0x09	; 9
    1f32:	96 95       	lsr	r25
    1f34:	87 95       	ror	r24
    1f36:	77 95       	ror	r23
    1f38:	67 95       	ror	r22
    1f3a:	aa 95       	dec	r26
    1f3c:	d1 f7       	brne	.-12     	; 0x1f32 <pf_write+0xd8>
    1f3e:	29 81       	ldd	r18, Y+1	; 0x01
    1f40:	30 e0       	ldi	r19, 0x00	; 0
    1f42:	40 e0       	ldi	r20, 0x00	; 0
    1f44:	50 e0       	ldi	r21, 0x00	; 0
    1f46:	0e 94 71 18 	call	0x30e2	; 0x30e2 <__udivmodsi4>
    1f4a:	61 15       	cp	r22, r1
    1f4c:	71 05       	cpc	r23, r1
    1f4e:	81 05       	cpc	r24, r1
    1f50:	91 05       	cpc	r25, r1
    1f52:	d9 f4       	brne	.+54     	; 0x1f8a <pf_write+0x130>
    1f54:	e1 14       	cp	r14, r1
    1f56:	f1 04       	cpc	r15, r1
    1f58:	01 05       	cpc	r16, r1
    1f5a:	11 05       	cpc	r17, r1
    1f5c:	29 f4       	brne	.+10     	; 0x1f68 <pf_write+0x10e>
    1f5e:	68 a1       	ldd	r22, Y+32	; 0x20
    1f60:	79 a1       	ldd	r23, Y+33	; 0x21
    1f62:	8a a1       	ldd	r24, Y+34	; 0x22
    1f64:	9b a1       	ldd	r25, Y+35	; 0x23
    1f66:	06 c0       	rjmp	.+12     	; 0x1f74 <pf_write+0x11a>
    1f68:	6c a1       	ldd	r22, Y+36	; 0x24
    1f6a:	7d a1       	ldd	r23, Y+37	; 0x25
    1f6c:	8e a1       	ldd	r24, Y+38	; 0x26
    1f6e:	9f a1       	ldd	r25, Y+39	; 0x27
    1f70:	0e 94 4e 08 	call	0x109c	; 0x109c <get_fat>
    1f74:	62 30       	cpi	r22, 0x02	; 2
    1f76:	71 05       	cpc	r23, r1
    1f78:	81 05       	cpc	r24, r1
    1f7a:	91 05       	cpc	r25, r1
    1f7c:	08 f4       	brcc	.+2      	; 0x1f80 <pf_write+0x126>
    1f7e:	91 c0       	rjmp	.+290    	; 0x20a2 <pf_write+0x248>
    1f80:	6c a3       	std	Y+36, r22	; 0x24
    1f82:	7d a3       	std	Y+37, r23	; 0x25
    1f84:	8e a3       	std	Y+38, r24	; 0x26
    1f86:	9f a3       	std	Y+39, r25	; 0x27
    1f88:	1b 82       	std	Y+3, r1	; 0x03
    1f8a:	00 91 1e 02 	lds	r16, 0x021E
    1f8e:	10 91 1f 02 	lds	r17, 0x021F
    1f92:	2c a1       	ldd	r18, Y+36	; 0x24
    1f94:	3d a1       	ldd	r19, Y+37	; 0x25
    1f96:	4e a1       	ldd	r20, Y+38	; 0x26
    1f98:	5f a1       	ldd	r21, Y+39	; 0x27
    1f9a:	22 50       	subi	r18, 0x02	; 2
    1f9c:	30 40       	sbci	r19, 0x00	; 0
    1f9e:	40 40       	sbci	r20, 0x00	; 0
    1fa0:	50 40       	sbci	r21, 0x00	; 0
    1fa2:	f8 01       	movw	r30, r16
    1fa4:	80 85       	ldd	r24, Z+8	; 0x08
    1fa6:	91 85       	ldd	r25, Z+9	; 0x09
    1fa8:	a2 85       	ldd	r26, Z+10	; 0x0a
    1faa:	b3 85       	ldd	r27, Z+11	; 0x0b
    1fac:	02 97       	sbiw	r24, 0x02	; 2
    1fae:	a1 09       	sbc	r26, r1
    1fb0:	b1 09       	sbc	r27, r1
    1fb2:	28 17       	cp	r18, r24
    1fb4:	39 07       	cpc	r19, r25
    1fb6:	4a 07       	cpc	r20, r26
    1fb8:	5b 07       	cpc	r21, r27
    1fba:	08 f0       	brcs	.+2      	; 0x1fbe <pf_write+0x164>
    1fbc:	72 c0       	rjmp	.+228    	; 0x20a2 <pf_write+0x248>
    1fbe:	61 81       	ldd	r22, Z+1	; 0x01
    1fc0:	70 e0       	ldi	r23, 0x00	; 0
    1fc2:	80 e0       	ldi	r24, 0x00	; 0
    1fc4:	90 e0       	ldi	r25, 0x00	; 0
    1fc6:	0e 94 46 18 	call	0x308c	; 0x308c <__mulsi3>
    1fca:	9b 01       	movw	r18, r22
    1fcc:	ac 01       	movw	r20, r24
    1fce:	f8 01       	movw	r30, r16
    1fd0:	84 89       	ldd	r24, Z+20	; 0x14
    1fd2:	95 89       	ldd	r25, Z+21	; 0x15
    1fd4:	a6 89       	ldd	r26, Z+22	; 0x16
    1fd6:	b7 89       	ldd	r27, Z+23	; 0x17
    1fd8:	28 0f       	add	r18, r24
    1fda:	39 1f       	adc	r19, r25
    1fdc:	4a 1f       	adc	r20, r26
    1fde:	5b 1f       	adc	r21, r27
    1fe0:	21 15       	cp	r18, r1
    1fe2:	31 05       	cpc	r19, r1
    1fe4:	41 05       	cpc	r20, r1
    1fe6:	51 05       	cpc	r21, r1
    1fe8:	09 f4       	brne	.+2      	; 0x1fec <pf_write+0x192>
    1fea:	5b c0       	rjmp	.+182    	; 0x20a2 <pf_write+0x248>
    1fec:	8b 81       	ldd	r24, Y+3	; 0x03
    1fee:	ba 01       	movw	r22, r20
    1ff0:	a9 01       	movw	r20, r18
    1ff2:	48 0f       	add	r20, r24
    1ff4:	51 1d       	adc	r21, r1
    1ff6:	61 1d       	adc	r22, r1
    1ff8:	71 1d       	adc	r23, r1
    1ffa:	48 a7       	std	Y+40, r20	; 0x28
    1ffc:	59 a7       	std	Y+41, r21	; 0x29
    1ffe:	6a a7       	std	Y+42, r22	; 0x2a
    2000:	7b a7       	std	Y+43, r23	; 0x2b
    2002:	8f 5f       	subi	r24, 0xFF	; 255
    2004:	8b 83       	std	Y+3, r24	; 0x03
    2006:	80 e0       	ldi	r24, 0x00	; 0
    2008:	90 e0       	ldi	r25, 0x00	; 0
    200a:	0e 94 7a 06 	call	0xcf4	; 0xcf4 <disk_writep>
    200e:	88 23       	and	r24, r24
    2010:	09 f0       	breq	.+2      	; 0x2014 <pf_write+0x1ba>
    2012:	47 c0       	rjmp	.+142    	; 0x20a2 <pf_write+0x248>
    2014:	8a 81       	ldd	r24, Y+2	; 0x02
    2016:	80 64       	ori	r24, 0x40	; 64
    2018:	8a 83       	std	Y+2, r24	; 0x02
    201a:	88 8d       	ldd	r24, Y+24	; 0x18
    201c:	99 8d       	ldd	r25, Y+25	; 0x19
    201e:	91 70       	andi	r25, 0x01	; 1
    2020:	92 01       	movw	r18, r4
    2022:	28 1b       	sub	r18, r24
    2024:	39 0b       	sbc	r19, r25
    2026:	65 01       	movw	r12, r10
    2028:	2a 15       	cp	r18, r10
    202a:	3b 05       	cpc	r19, r11
    202c:	08 f4       	brcc	.+2      	; 0x2030 <pf_write+0x1d6>
    202e:	69 01       	movw	r12, r18
    2030:	76 01       	movw	r14, r12
    2032:	00 e0       	ldi	r16, 0x00	; 0
    2034:	10 e0       	ldi	r17, 0x00	; 0
    2036:	c4 01       	movw	r24, r8
    2038:	b8 01       	movw	r22, r16
    203a:	a7 01       	movw	r20, r14
    203c:	0e 94 7a 06 	call	0xcf4	; 0xcf4 <disk_writep>
    2040:	88 23       	and	r24, r24
    2042:	79 f5       	brne	.+94     	; 0x20a2 <pf_write+0x248>
    2044:	88 8d       	ldd	r24, Y+24	; 0x18
    2046:	99 8d       	ldd	r25, Y+25	; 0x19
    2048:	aa 8d       	ldd	r26, Y+26	; 0x1a
    204a:	bb 8d       	ldd	r27, Y+27	; 0x1b
    204c:	8e 0d       	add	r24, r14
    204e:	9f 1d       	adc	r25, r15
    2050:	a0 1f       	adc	r26, r16
    2052:	b1 1f       	adc	r27, r17
    2054:	9c 01       	movw	r18, r24
    2056:	88 8f       	std	Y+24, r24	; 0x18
    2058:	99 8f       	std	Y+25, r25	; 0x19
    205a:	aa 8f       	std	Y+26, r26	; 0x1a
    205c:	bb 8f       	std	Y+27, r27	; 0x1b
    205e:	d3 01       	movw	r26, r6
    2060:	8d 91       	ld	r24, X+
    2062:	9c 91       	ld	r25, X
    2064:	11 97       	sbiw	r26, 0x01	; 1
    2066:	8c 0d       	add	r24, r12
    2068:	9d 1d       	adc	r25, r13
    206a:	8d 93       	st	X+, r24
    206c:	9c 93       	st	X, r25
    206e:	31 70       	andi	r19, 0x01	; 1
    2070:	23 2b       	or	r18, r19
    2072:	69 f4       	brne	.+26     	; 0x208e <pf_write+0x234>
    2074:	80 e0       	ldi	r24, 0x00	; 0
    2076:	90 e0       	ldi	r25, 0x00	; 0
    2078:	40 e0       	ldi	r20, 0x00	; 0
    207a:	50 e0       	ldi	r21, 0x00	; 0
    207c:	60 e0       	ldi	r22, 0x00	; 0
    207e:	70 e0       	ldi	r23, 0x00	; 0
    2080:	0e 94 7a 06 	call	0xcf4	; 0xcf4 <disk_writep>
    2084:	88 23       	and	r24, r24
    2086:	69 f4       	brne	.+26     	; 0x20a2 <pf_write+0x248>
    2088:	8a 81       	ldd	r24, Y+2	; 0x02
    208a:	8f 7b       	andi	r24, 0xBF	; 191
    208c:	8a 83       	std	Y+2, r24	; 0x02
    208e:	8c 0c       	add	r8, r12
    2090:	9d 1c       	adc	r9, r13
    2092:	ac 18       	sub	r10, r12
    2094:	bd 08       	sbc	r11, r13
    2096:	a1 14       	cp	r10, r1
    2098:	b1 04       	cpc	r11, r1
    209a:	09 f0       	breq	.+2      	; 0x209e <pf_write+0x244>
    209c:	3e cf       	rjmp	.-388    	; 0x1f1a <pf_write+0xc0>
    209e:	80 e0       	ldi	r24, 0x00	; 0
    20a0:	02 c0       	rjmp	.+4      	; 0x20a6 <pf_write+0x24c>
    20a2:	1a 82       	std	Y+2, r1	; 0x02
    20a4:	81 e0       	ldi	r24, 0x01	; 1
    20a6:	df 91       	pop	r29
    20a8:	cf 91       	pop	r28
    20aa:	1f 91       	pop	r17
    20ac:	0f 91       	pop	r16
    20ae:	ff 90       	pop	r15
    20b0:	ef 90       	pop	r14
    20b2:	df 90       	pop	r13
    20b4:	cf 90       	pop	r12
    20b6:	bf 90       	pop	r11
    20b8:	af 90       	pop	r10
    20ba:	9f 90       	pop	r9
    20bc:	8f 90       	pop	r8
    20be:	7f 90       	pop	r7
    20c0:	6f 90       	pop	r6
    20c2:	5f 90       	pop	r5
    20c4:	4f 90       	pop	r4
    20c6:	08 95       	ret

000020c8 <pf_mount>:
    20c8:	6f 92       	push	r6
    20ca:	7f 92       	push	r7
    20cc:	8f 92       	push	r8
    20ce:	9f 92       	push	r9
    20d0:	af 92       	push	r10
    20d2:	bf 92       	push	r11
    20d4:	cf 92       	push	r12
    20d6:	df 92       	push	r13
    20d8:	ef 92       	push	r14
    20da:	ff 92       	push	r15
    20dc:	0f 93       	push	r16
    20de:	1f 93       	push	r17
    20e0:	df 93       	push	r29
    20e2:	cf 93       	push	r28
    20e4:	cd b7       	in	r28, 0x3d	; 61
    20e6:	de b7       	in	r29, 0x3e	; 62
    20e8:	a4 97       	sbiw	r28, 0x24	; 36
    20ea:	0f b6       	in	r0, 0x3f	; 63
    20ec:	f8 94       	cli
    20ee:	de bf       	out	0x3e, r29	; 62
    20f0:	0f be       	out	0x3f, r0	; 63
    20f2:	cd bf       	out	0x3d, r28	; 61
    20f4:	5c 01       	movw	r10, r24
    20f6:	10 92 1f 02 	sts	0x021F, r1
    20fa:	10 92 1e 02 	sts	0x021E, r1
    20fe:	00 97       	sbiw	r24, 0x00	; 0
    2100:	09 f4       	brne	.+2      	; 0x2104 <pf_mount+0x3c>
    2102:	ed c0       	rjmp	.+474    	; 0x22de <pf_mount+0x216>
    2104:	0e 94 f2 06 	call	0xde4	; 0xde4 <disk_initialize>
    2108:	80 ff       	sbrs	r24, 0
    210a:	02 c0       	rjmp	.+4      	; 0x2110 <pf_mount+0x48>
    210c:	82 e0       	ldi	r24, 0x02	; 2
    210e:	ec c0       	rjmp	.+472    	; 0x22e8 <pf_mount+0x220>
    2110:	4e 01       	movw	r8, r28
    2112:	08 94       	sec
    2114:	81 1c       	adc	r8, r1
    2116:	91 1c       	adc	r9, r1
    2118:	c4 01       	movw	r24, r8
    211a:	40 e0       	ldi	r20, 0x00	; 0
    211c:	50 e0       	ldi	r21, 0x00	; 0
    211e:	60 e0       	ldi	r22, 0x00	; 0
    2120:	70 e0       	ldi	r23, 0x00	; 0
    2122:	0e 94 d6 0e 	call	0x1dac	; 0x1dac <check_fs>
    2126:	81 30       	cpi	r24, 0x01	; 1
    2128:	21 f0       	breq	.+8      	; 0x2132 <pf_mount+0x6a>
    212a:	cc 24       	eor	r12, r12
    212c:	dd 24       	eor	r13, r13
    212e:	76 01       	movw	r14, r12
    2130:	1b c0       	rjmp	.+54     	; 0x2168 <pf_mount+0xa0>
    2132:	c4 01       	movw	r24, r8
    2134:	40 e0       	ldi	r20, 0x00	; 0
    2136:	50 e0       	ldi	r21, 0x00	; 0
    2138:	60 e0       	ldi	r22, 0x00	; 0
    213a:	70 e0       	ldi	r23, 0x00	; 0
    213c:	2e eb       	ldi	r18, 0xBE	; 190
    213e:	31 e0       	ldi	r19, 0x01	; 1
    2140:	00 e1       	ldi	r16, 0x10	; 16
    2142:	10 e0       	ldi	r17, 0x00	; 0
    2144:	0e 94 18 06 	call	0xc30	; 0xc30 <disk_readp>
    2148:	88 23       	and	r24, r24
    214a:	09 f0       	breq	.+2      	; 0x214e <pf_mount+0x86>
    214c:	ca c0       	rjmp	.+404    	; 0x22e2 <pf_mount+0x21a>
    214e:	8d 81       	ldd	r24, Y+5	; 0x05
    2150:	88 23       	and	r24, r24
    2152:	09 f4       	brne	.+2      	; 0x2156 <pf_mount+0x8e>
    2154:	c8 c0       	rjmp	.+400    	; 0x22e6 <pf_mount+0x21e>
    2156:	c9 84       	ldd	r12, Y+9	; 0x09
    2158:	da 84       	ldd	r13, Y+10	; 0x0a
    215a:	eb 84       	ldd	r14, Y+11	; 0x0b
    215c:	fc 84       	ldd	r15, Y+12	; 0x0c
    215e:	c4 01       	movw	r24, r8
    2160:	b7 01       	movw	r22, r14
    2162:	a6 01       	movw	r20, r12
    2164:	0e 94 d6 0e 	call	0x1dac	; 0x1dac <check_fs>
    2168:	83 30       	cpi	r24, 0x03	; 3
    216a:	09 f4       	brne	.+2      	; 0x216e <pf_mount+0xa6>
    216c:	ba c0       	rjmp	.+372    	; 0x22e2 <pf_mount+0x21a>
    216e:	88 23       	and	r24, r24
    2170:	09 f0       	breq	.+2      	; 0x2174 <pf_mount+0xac>
    2172:	b9 c0       	rjmp	.+370    	; 0x22e6 <pf_mount+0x21e>
    2174:	ce 01       	movw	r24, r28
    2176:	01 96       	adiw	r24, 0x01	; 1
    2178:	b7 01       	movw	r22, r14
    217a:	a6 01       	movw	r20, r12
    217c:	2d e0       	ldi	r18, 0x0D	; 13
    217e:	30 e0       	ldi	r19, 0x00	; 0
    2180:	04 e2       	ldi	r16, 0x24	; 36
    2182:	10 e0       	ldi	r17, 0x00	; 0
    2184:	0e 94 18 06 	call	0xc30	; 0xc30 <disk_readp>
    2188:	88 23       	and	r24, r24
    218a:	09 f0       	breq	.+2      	; 0x218e <pf_mount+0xc6>
    218c:	aa c0       	rjmp	.+340    	; 0x22e2 <pf_mount+0x21a>
    218e:	8a 85       	ldd	r24, Y+10	; 0x0a
    2190:	9b 85       	ldd	r25, Y+11	; 0x0b
    2192:	bc 01       	movw	r22, r24
    2194:	80 e0       	ldi	r24, 0x00	; 0
    2196:	90 e0       	ldi	r25, 0x00	; 0
    2198:	61 15       	cp	r22, r1
    219a:	71 05       	cpc	r23, r1
    219c:	81 05       	cpc	r24, r1
    219e:	91 05       	cpc	r25, r1
    21a0:	21 f4       	brne	.+8      	; 0x21aa <pf_mount+0xe2>
    21a2:	68 8d       	ldd	r22, Y+24	; 0x18
    21a4:	79 8d       	ldd	r23, Y+25	; 0x19
    21a6:	8a 8d       	ldd	r24, Y+26	; 0x1a
    21a8:	9b 8d       	ldd	r25, Y+27	; 0x1b
    21aa:	2c 81       	ldd	r18, Y+4	; 0x04
    21ac:	30 e0       	ldi	r19, 0x00	; 0
    21ae:	40 e0       	ldi	r20, 0x00	; 0
    21b0:	50 e0       	ldi	r21, 0x00	; 0
    21b2:	0e 94 46 18 	call	0x308c	; 0x308c <__mulsi3>
    21b6:	3b 01       	movw	r6, r22
    21b8:	4c 01       	movw	r8, r24
    21ba:	8a 81       	ldd	r24, Y+2	; 0x02
    21bc:	9b 81       	ldd	r25, Y+3	; 0x03
    21be:	a0 e0       	ldi	r26, 0x00	; 0
    21c0:	b0 e0       	ldi	r27, 0x00	; 0
    21c2:	c8 0e       	add	r12, r24
    21c4:	d9 1e       	adc	r13, r25
    21c6:	ea 1e       	adc	r14, r26
    21c8:	fb 1e       	adc	r15, r27
    21ca:	f5 01       	movw	r30, r10
    21cc:	c4 86       	std	Z+12, r12	; 0x0c
    21ce:	d5 86       	std	Z+13, r13	; 0x0d
    21d0:	e6 86       	std	Z+14, r14	; 0x0e
    21d2:	f7 86       	std	Z+15, r15	; 0x0f
    21d4:	89 81       	ldd	r24, Y+1	; 0x01
    21d6:	81 83       	std	Z+1, r24	; 0x01
    21d8:	2d 81       	ldd	r18, Y+5	; 0x05
    21da:	3e 81       	ldd	r19, Y+6	; 0x06
    21dc:	35 83       	std	Z+5, r19	; 0x05
    21de:	24 83       	std	Z+4, r18	; 0x04
    21e0:	8f 81       	ldd	r24, Y+7	; 0x07
    21e2:	98 85       	ldd	r25, Y+8	; 0x08
    21e4:	7c 01       	movw	r14, r24
    21e6:	00 e0       	ldi	r16, 0x00	; 0
    21e8:	10 e0       	ldi	r17, 0x00	; 0
    21ea:	e1 14       	cp	r14, r1
    21ec:	f1 04       	cpc	r15, r1
    21ee:	01 05       	cpc	r16, r1
    21f0:	11 05       	cpc	r17, r1
    21f2:	21 f4       	brne	.+8      	; 0x21fc <pf_mount+0x134>
    21f4:	ec 88       	ldd	r14, Y+20	; 0x14
    21f6:	fd 88       	ldd	r15, Y+21	; 0x15
    21f8:	0e 89       	ldd	r16, Y+22	; 0x16
    21fa:	1f 89       	ldd	r17, Y+23	; 0x17
    21fc:	8a 81       	ldd	r24, Y+2	; 0x02
    21fe:	9b 81       	ldd	r25, Y+3	; 0x03
    2200:	a0 e0       	ldi	r26, 0x00	; 0
    2202:	b0 e0       	ldi	r27, 0x00	; 0
    2204:	e8 1a       	sub	r14, r24
    2206:	f9 0a       	sbc	r15, r25
    2208:	0a 0b       	sbc	r16, r26
    220a:	1b 0b       	sbc	r17, r27
    220c:	e6 18       	sub	r14, r6
    220e:	f7 08       	sbc	r15, r7
    2210:	08 09       	sbc	r16, r8
    2212:	19 09       	sbc	r17, r9
    2214:	84 e0       	ldi	r24, 0x04	; 4
    2216:	36 95       	lsr	r19
    2218:	27 95       	ror	r18
    221a:	8a 95       	dec	r24
    221c:	e1 f7       	brne	.-8      	; 0x2216 <pf_mount+0x14e>
    221e:	c9 01       	movw	r24, r18
    2220:	a0 e0       	ldi	r26, 0x00	; 0
    2222:	b0 e0       	ldi	r27, 0x00	; 0
    2224:	e8 1a       	sub	r14, r24
    2226:	f9 0a       	sbc	r15, r25
    2228:	0a 0b       	sbc	r16, r26
    222a:	1b 0b       	sbc	r17, r27
    222c:	f5 01       	movw	r30, r10
    222e:	21 81       	ldd	r18, Z+1	; 0x01
    2230:	30 e0       	ldi	r19, 0x00	; 0
    2232:	40 e0       	ldi	r20, 0x00	; 0
    2234:	50 e0       	ldi	r21, 0x00	; 0
    2236:	c8 01       	movw	r24, r16
    2238:	b7 01       	movw	r22, r14
    223a:	0e 94 71 18 	call	0x30e2	; 0x30e2 <__udivmodsi4>
    223e:	2e 5f       	subi	r18, 0xFE	; 254
    2240:	3f 4f       	sbci	r19, 0xFF	; 255
    2242:	4f 4f       	sbci	r20, 0xFF	; 255
    2244:	5f 4f       	sbci	r21, 0xFF	; 255
    2246:	f5 01       	movw	r30, r10
    2248:	20 87       	std	Z+8, r18	; 0x08
    224a:	31 87       	std	Z+9, r19	; 0x09
    224c:	42 87       	std	Z+10, r20	; 0x0a
    224e:	53 87       	std	Z+11, r21	; 0x0b
    2250:	27 3f       	cpi	r18, 0xF7	; 247
    2252:	ff e0       	ldi	r31, 0x0F	; 15
    2254:	3f 07       	cpc	r19, r31
    2256:	f0 e0       	ldi	r31, 0x00	; 0
    2258:	4f 07       	cpc	r20, r31
    225a:	f0 e0       	ldi	r31, 0x00	; 0
    225c:	5f 07       	cpc	r21, r31
    225e:	10 f4       	brcc	.+4      	; 0x2264 <pf_mount+0x19c>
    2260:	81 e0       	ldi	r24, 0x01	; 1
    2262:	08 c0       	rjmp	.+16     	; 0x2274 <pf_mount+0x1ac>
    2264:	27 5f       	subi	r18, 0xF7	; 247
    2266:	3f 4f       	sbci	r19, 0xFF	; 255
    2268:	40 40       	sbci	r20, 0x00	; 0
    226a:	50 40       	sbci	r21, 0x00	; 0
    226c:	10 f0       	brcs	.+4      	; 0x2272 <pf_mount+0x1aa>
    226e:	83 e0       	ldi	r24, 0x03	; 3
    2270:	01 c0       	rjmp	.+2      	; 0x2274 <pf_mount+0x1ac>
    2272:	82 e0       	ldi	r24, 0x02	; 2
    2274:	f5 01       	movw	r30, r10
    2276:	80 83       	st	Z, r24
    2278:	83 30       	cpi	r24, 0x03	; 3
    227a:	29 f4       	brne	.+10     	; 0x2286 <pf_mount+0x1be>
    227c:	88 a1       	ldd	r24, Y+32	; 0x20
    227e:	99 a1       	ldd	r25, Y+33	; 0x21
    2280:	aa a1       	ldd	r26, Y+34	; 0x22
    2282:	bb a1       	ldd	r27, Y+35	; 0x23
    2284:	09 c0       	rjmp	.+18     	; 0x2298 <pf_mount+0x1d0>
    2286:	f5 01       	movw	r30, r10
    2288:	84 85       	ldd	r24, Z+12	; 0x0c
    228a:	95 85       	ldd	r25, Z+13	; 0x0d
    228c:	a6 85       	ldd	r26, Z+14	; 0x0e
    228e:	b7 85       	ldd	r27, Z+15	; 0x0f
    2290:	86 0d       	add	r24, r6
    2292:	97 1d       	adc	r25, r7
    2294:	a8 1d       	adc	r26, r8
    2296:	b9 1d       	adc	r27, r9
    2298:	80 8b       	std	Z+16, r24	; 0x10
    229a:	91 8b       	std	Z+17, r25	; 0x11
    229c:	a2 8b       	std	Z+18, r26	; 0x12
    229e:	b3 8b       	std	Z+19, r27	; 0x13
    22a0:	f5 01       	movw	r30, r10
    22a2:	84 81       	ldd	r24, Z+4	; 0x04
    22a4:	95 81       	ldd	r25, Z+5	; 0x05
    22a6:	14 e0       	ldi	r17, 0x04	; 4
    22a8:	96 95       	lsr	r25
    22aa:	87 95       	ror	r24
    22ac:	1a 95       	dec	r17
    22ae:	e1 f7       	brne	.-8      	; 0x22a8 <pf_mount+0x1e0>
    22b0:	a0 e0       	ldi	r26, 0x00	; 0
    22b2:	b0 e0       	ldi	r27, 0x00	; 0
    22b4:	24 85       	ldd	r18, Z+12	; 0x0c
    22b6:	35 85       	ldd	r19, Z+13	; 0x0d
    22b8:	46 85       	ldd	r20, Z+14	; 0x0e
    22ba:	57 85       	ldd	r21, Z+15	; 0x0f
    22bc:	82 0f       	add	r24, r18
    22be:	93 1f       	adc	r25, r19
    22c0:	a4 1f       	adc	r26, r20
    22c2:	b5 1f       	adc	r27, r21
    22c4:	86 0d       	add	r24, r6
    22c6:	97 1d       	adc	r25, r7
    22c8:	a8 1d       	adc	r26, r8
    22ca:	b9 1d       	adc	r27, r9
    22cc:	84 8b       	std	Z+20, r24	; 0x14
    22ce:	95 8b       	std	Z+21, r25	; 0x15
    22d0:	a6 8b       	std	Z+22, r26	; 0x16
    22d2:	b7 8b       	std	Z+23, r27	; 0x17
    22d4:	12 82       	std	Z+2, r1	; 0x02
    22d6:	b0 92 1f 02 	sts	0x021F, r11
    22da:	a0 92 1e 02 	sts	0x021E, r10
    22de:	80 e0       	ldi	r24, 0x00	; 0
    22e0:	03 c0       	rjmp	.+6      	; 0x22e8 <pf_mount+0x220>
    22e2:	81 e0       	ldi	r24, 0x01	; 1
    22e4:	01 c0       	rjmp	.+2      	; 0x22e8 <pf_mount+0x220>
    22e6:	87 e0       	ldi	r24, 0x07	; 7
    22e8:	a4 96       	adiw	r28, 0x24	; 36
    22ea:	0f b6       	in	r0, 0x3f	; 63
    22ec:	f8 94       	cli
    22ee:	de bf       	out	0x3e, r29	; 62
    22f0:	0f be       	out	0x3f, r0	; 63
    22f2:	cd bf       	out	0x3d, r28	; 61
    22f4:	cf 91       	pop	r28
    22f6:	df 91       	pop	r29
    22f8:	1f 91       	pop	r17
    22fa:	0f 91       	pop	r16
    22fc:	ff 90       	pop	r15
    22fe:	ef 90       	pop	r14
    2300:	df 90       	pop	r13
    2302:	cf 90       	pop	r12
    2304:	bf 90       	pop	r11
    2306:	af 90       	pop	r10
    2308:	9f 90       	pop	r9
    230a:	8f 90       	pop	r8
    230c:	7f 90       	pop	r7
    230e:	6f 90       	pop	r6
    2310:	08 95       	ret

00002312 <InitUSART>:
    2312:	9b 01       	movw	r18, r22
    2314:	ac 01       	movw	r20, r24
    2316:	64 e0       	ldi	r22, 0x04	; 4
    2318:	22 0f       	add	r18, r18
    231a:	33 1f       	adc	r19, r19
    231c:	44 1f       	adc	r20, r20
    231e:	55 1f       	adc	r21, r21
    2320:	6a 95       	dec	r22
    2322:	d1 f7       	brne	.-12     	; 0x2318 <InitUSART+0x6>
    2324:	60 e0       	ldi	r22, 0x00	; 0
    2326:	74 e2       	ldi	r23, 0x24	; 36
    2328:	84 ef       	ldi	r24, 0xF4	; 244
    232a:	90 e0       	ldi	r25, 0x00	; 0
    232c:	0e 94 71 18 	call	0x30e2	; 0x30e2 <__udivmodsi4>
    2330:	c9 01       	movw	r24, r18
    2332:	da 01       	movw	r26, r20
    2334:	01 97       	sbiw	r24, 0x01	; 1
    2336:	a1 09       	sbc	r26, r1
    2338:	b1 09       	sbc	r27, r1
    233a:	29 2f       	mov	r18, r25
    233c:	3a 2f       	mov	r19, r26
    233e:	4b 2f       	mov	r20, r27
    2340:	55 27       	eor	r21, r21
    2342:	01 96       	adiw	r24, 0x01	; 1
    2344:	a1 1d       	adc	r26, r1
    2346:	b1 1d       	adc	r27, r1
    2348:	20 bd       	out	0x20, r18	; 32
    234a:	81 50       	subi	r24, 0x01	; 1
    234c:	89 b9       	out	0x09, r24	; 9
    234e:	88 e1       	ldi	r24, 0x18	; 24
    2350:	8a b9       	out	0x0a, r24	; 10
    2352:	86 e8       	ldi	r24, 0x86	; 134
    2354:	80 bd       	out	0x20, r24	; 32
    2356:	08 95       	ret

00002358 <ReceiveUSART>:
    2358:	5f 9b       	sbis	0x0b, 7	; 11
    235a:	fe cf       	rjmp	.-4      	; 0x2358 <ReceiveUSART>
    235c:	8c b1       	in	r24, 0x0c	; 12
    235e:	08 95       	ret

00002360 <TransmitUSART>:
    2360:	5d 9b       	sbis	0x0b, 5	; 11
    2362:	fe cf       	rjmp	.-4      	; 0x2360 <TransmitUSART>
    2364:	8c b9       	out	0x0c, r24	; 12
    2366:	08 95       	ret

00002368 <buforSize>:
    2368:	fc 01       	movw	r30, r24
    236a:	20 e0       	ldi	r18, 0x00	; 0
    236c:	30 e0       	ldi	r19, 0x00	; 0
    236e:	02 c0       	rjmp	.+4      	; 0x2374 <buforSize+0xc>
    2370:	2f 5f       	subi	r18, 0xFF	; 255
    2372:	3f 4f       	sbci	r19, 0xFF	; 255
    2374:	80 81       	ld	r24, Z
    2376:	8d 30       	cpi	r24, 0x0D	; 13
    2378:	21 f0       	breq	.+8      	; 0x2382 <buforSize+0x1a>
    237a:	81 81       	ldd	r24, Z+1	; 0x01
    237c:	31 96       	adiw	r30, 0x01	; 1
    237e:	8a 30       	cpi	r24, 0x0A	; 10
    2380:	b9 f7       	brne	.-18     	; 0x2370 <buforSize+0x8>
    2382:	2e 5f       	subi	r18, 0xFE	; 254
    2384:	3f 4f       	sbci	r19, 0xFF	; 255
    2386:	c9 01       	movw	r24, r18
    2388:	08 95       	ret

0000238a <BT_receive>:
    238a:	cf 92       	push	r12
    238c:	df 92       	push	r13
    238e:	ff 92       	push	r15
    2390:	0f 93       	push	r16
    2392:	1f 93       	push	r17
    2394:	df 93       	push	r29
    2396:	cf 93       	push	r28
    2398:	0f 92       	push	r0
    239a:	cd b7       	in	r28, 0x3d	; 61
    239c:	de b7       	in	r29, 0x3e	; 62
    239e:	8c 01       	movw	r16, r24
    23a0:	6b 01       	movw	r12, r22
    23a2:	5f 9b       	sbis	0x0b, 7	; 11
    23a4:	fe cf       	rjmp	.-4      	; 0x23a2 <BT_receive+0x18>
    23a6:	8c b1       	in	r24, 0x0c	; 12
    23a8:	8a 30       	cpi	r24, 0x0A	; 10
    23aa:	d9 f7       	brne	.-10     	; 0x23a2 <BT_receive+0x18>
    23ac:	19 82       	std	Y+1, r1	; 0x01
    23ae:	5f 9b       	sbis	0x0b, 7	; 11
    23b0:	fe cf       	rjmp	.-4      	; 0x23ae <BT_receive+0x24>
    23b2:	fc b0       	in	r15, 0x0c	; 12
    23b4:	8a e0       	ldi	r24, 0x0A	; 10
    23b6:	f8 16       	cp	r15, r24
    23b8:	11 f4       	brne	.+4      	; 0x23be <BT_receive+0x34>
    23ba:	a1 e0       	ldi	r26, 0x01	; 1
    23bc:	a9 83       	std	Y+1, r26	; 0x01
    23be:	08 94       	sec
    23c0:	c1 1c       	adc	r12, r1
    23c2:	d1 1c       	adc	r13, r1
    23c4:	f8 01       	movw	r30, r16
    23c6:	80 81       	ld	r24, Z
    23c8:	91 81       	ldd	r25, Z+1	; 0x01
    23ca:	b6 01       	movw	r22, r12
    23cc:	0e 94 b4 19 	call	0x3368	; 0x3368 <realloc>
    23d0:	fc 01       	movw	r30, r24
    23d2:	d8 01       	movw	r26, r16
    23d4:	8d 93       	st	X+, r24
    23d6:	9c 93       	st	X, r25
    23d8:	ec 0d       	add	r30, r12
    23da:	fd 1d       	adc	r31, r13
    23dc:	31 97       	sbiw	r30, 0x01	; 1
    23de:	f0 82       	st	Z, r15
    23e0:	b9 81       	ldd	r27, Y+1	; 0x01
    23e2:	b1 30       	cpi	r27, 0x01	; 1
    23e4:	21 f7       	brne	.-56     	; 0x23ae <BT_receive+0x24>
    23e6:	c6 01       	movw	r24, r12
    23e8:	0f 90       	pop	r0
    23ea:	cf 91       	pop	r28
    23ec:	df 91       	pop	r29
    23ee:	1f 91       	pop	r17
    23f0:	0f 91       	pop	r16
    23f2:	ff 90       	pop	r15
    23f4:	df 90       	pop	r13
    23f6:	cf 90       	pop	r12
    23f8:	08 95       	ret

000023fa <start>:
    23fa:	1f 93       	push	r17
    23fc:	cf 93       	push	r28
    23fe:	df 93       	push	r29
    2400:	0e 94 95 13 	call	0x272a	; 0x272a <lcd_cls>
    2404:	80 e0       	ldi	r24, 0x00	; 0
    2406:	65 e0       	ldi	r22, 0x05	; 5
    2408:	0e 94 8d 13 	call	0x271a	; 0x271a <lcd_locate>
    240c:	84 e9       	ldi	r24, 0x94	; 148
    240e:	91 e0       	ldi	r25, 0x01	; 1
    2410:	0e 94 3b 13 	call	0x2676	; 0x2676 <lcd_str>
    2414:	80 e1       	ldi	r24, 0x10	; 16
    2416:	97 e2       	ldi	r25, 0x27	; 39
    2418:	20 e9       	ldi	r18, 0x90	; 144
    241a:	31 e0       	ldi	r19, 0x01	; 1
    241c:	f9 01       	movw	r30, r18
    241e:	31 97       	sbiw	r30, 0x01	; 1
    2420:	f1 f7       	brne	.-4      	; 0x241e <start+0x24>
    2422:	01 97       	sbiw	r24, 0x01	; 1
    2424:	d9 f7       	brne	.-10     	; 0x241c <start+0x22>
    2426:	10 e0       	ldi	r17, 0x00	; 0
    2428:	c0 e9       	ldi	r28, 0x90	; 144
    242a:	d1 e0       	ldi	r29, 0x01	; 1
    242c:	81 e0       	ldi	r24, 0x01	; 1
    242e:	61 2f       	mov	r22, r17
    2430:	0e 94 8d 13 	call	0x271a	; 0x271a <lcd_locate>
    2434:	84 ef       	ldi	r24, 0xF4	; 244
    2436:	91 e0       	ldi	r25, 0x01	; 1
    2438:	fe 01       	movw	r30, r28
    243a:	31 97       	sbiw	r30, 0x01	; 1
    243c:	f1 f7       	brne	.-4      	; 0x243a <start+0x40>
    243e:	01 97       	sbiw	r24, 0x01	; 1
    2440:	d9 f7       	brne	.-10     	; 0x2438 <start+0x3e>
    2442:	8a e9       	ldi	r24, 0x9A	; 154
    2444:	91 e0       	ldi	r25, 0x01	; 1
    2446:	0e 94 3b 13 	call	0x2676	; 0x2676 <lcd_str>
    244a:	1f 5f       	subi	r17, 0xFF	; 255
    244c:	10 31       	cpi	r17, 0x10	; 16
    244e:	71 f7       	brne	.-36     	; 0x242c <start+0x32>
    2450:	80 ed       	ldi	r24, 0xD0	; 208
    2452:	97 e0       	ldi	r25, 0x07	; 7
    2454:	20 e9       	ldi	r18, 0x90	; 144
    2456:	31 e0       	ldi	r19, 0x01	; 1
    2458:	f9 01       	movw	r30, r18
    245a:	31 97       	sbiw	r30, 0x01	; 1
    245c:	f1 f7       	brne	.-4      	; 0x245a <start+0x60>
    245e:	01 97       	sbiw	r24, 0x01	; 1
    2460:	d9 f7       	brne	.-10     	; 0x2458 <start+0x5e>
    2462:	df 91       	pop	r29
    2464:	cf 91       	pop	r28
    2466:	1f 91       	pop	r17
    2468:	08 95       	ret

0000246a <wyswietl_numer>:
    246a:	0f 93       	push	r16
    246c:	1f 93       	push	r17
    246e:	df 93       	push	r29
    2470:	cf 93       	push	r28
    2472:	cd b7       	in	r28, 0x3d	; 61
    2474:	de b7       	in	r29, 0x3e	; 62
    2476:	64 97       	sbiw	r28, 0x14	; 20
    2478:	0f b6       	in	r0, 0x3f	; 63
    247a:	f8 94       	cli
    247c:	de bf       	out	0x3e, r29	; 62
    247e:	0f be       	out	0x3f, r0	; 63
    2480:	cd bf       	out	0x3d, r28	; 61
    2482:	8c 01       	movw	r16, r24
    2484:	80 91 9c 01 	lds	r24, 0x019C
    2488:	90 91 9d 01 	lds	r25, 0x019D
    248c:	9a 83       	std	Y+2, r25	; 0x02
    248e:	89 83       	std	Y+1, r24	; 0x01
    2490:	80 91 9e 01 	lds	r24, 0x019E
    2494:	90 91 9f 01 	lds	r25, 0x019F
    2498:	9c 83       	std	Y+4, r25	; 0x04
    249a:	8b 83       	std	Y+3, r24	; 0x03
    249c:	80 91 a0 01 	lds	r24, 0x01A0
    24a0:	90 91 a1 01 	lds	r25, 0x01A1
    24a4:	9e 83       	std	Y+6, r25	; 0x06
    24a6:	8d 83       	std	Y+5, r24	; 0x05
    24a8:	80 91 a2 01 	lds	r24, 0x01A2
    24ac:	90 91 a3 01 	lds	r25, 0x01A3
    24b0:	98 87       	std	Y+8, r25	; 0x08
    24b2:	8f 83       	std	Y+7, r24	; 0x07
    24b4:	80 91 a4 01 	lds	r24, 0x01A4
    24b8:	90 91 a5 01 	lds	r25, 0x01A5
    24bc:	9a 87       	std	Y+10, r25	; 0x0a
    24be:	89 87       	std	Y+9, r24	; 0x09
    24c0:	80 91 a6 01 	lds	r24, 0x01A6
    24c4:	90 91 a7 01 	lds	r25, 0x01A7
    24c8:	9c 87       	std	Y+12, r25	; 0x0c
    24ca:	8b 87       	std	Y+11, r24	; 0x0b
    24cc:	80 91 a8 01 	lds	r24, 0x01A8
    24d0:	90 91 a9 01 	lds	r25, 0x01A9
    24d4:	9e 87       	std	Y+14, r25	; 0x0e
    24d6:	8d 87       	std	Y+13, r24	; 0x0d
    24d8:	80 91 aa 01 	lds	r24, 0x01AA
    24dc:	90 91 ab 01 	lds	r25, 0x01AB
    24e0:	98 8b       	std	Y+16, r25	; 0x10
    24e2:	8f 87       	std	Y+15, r24	; 0x0f
    24e4:	80 91 ac 01 	lds	r24, 0x01AC
    24e8:	90 91 ad 01 	lds	r25, 0x01AD
    24ec:	9a 8b       	std	Y+18, r25	; 0x12
    24ee:	89 8b       	std	Y+17, r24	; 0x11
    24f0:	80 91 ae 01 	lds	r24, 0x01AE
    24f4:	90 91 af 01 	lds	r25, 0x01AF
    24f8:	9c 8b       	std	Y+20, r25	; 0x14
    24fa:	8b 8b       	std	Y+19, r24	; 0x13
    24fc:	80 e0       	ldi	r24, 0x00	; 0
    24fe:	6f e0       	ldi	r22, 0x0F	; 15
    2500:	0e 94 8d 13 	call	0x271a	; 0x271a <lcd_locate>
    2504:	04 30       	cpi	r16, 0x04	; 4
    2506:	11 05       	cpc	r17, r1
    2508:	99 f1       	breq	.+102    	; 0x2570 <wyswietl_numer+0x106>
    250a:	05 30       	cpi	r16, 0x05	; 5
    250c:	11 05       	cpc	r17, r1
    250e:	84 f4       	brge	.+32     	; 0x2530 <wyswietl_numer+0xc6>
    2510:	01 30       	cpi	r16, 0x01	; 1
    2512:	11 05       	cpc	r17, r1
    2514:	21 f1       	breq	.+72     	; 0x255e <wyswietl_numer+0xf4>
    2516:	02 30       	cpi	r16, 0x02	; 2
    2518:	11 05       	cpc	r17, r1
    251a:	1c f4       	brge	.+6      	; 0x2522 <wyswietl_numer+0xb8>
    251c:	01 2b       	or	r16, r17
    251e:	e1 f0       	breq	.+56     	; 0x2558 <wyswietl_numer+0xee>
    2520:	3a c0       	rjmp	.+116    	; 0x2596 <wyswietl_numer+0x12c>
    2522:	02 30       	cpi	r16, 0x02	; 2
    2524:	11 05       	cpc	r17, r1
    2526:	f1 f0       	breq	.+60     	; 0x2564 <wyswietl_numer+0xfa>
    2528:	03 30       	cpi	r16, 0x03	; 3
    252a:	11 05       	cpc	r17, r1
    252c:	a1 f5       	brne	.+104    	; 0x2596 <wyswietl_numer+0x12c>
    252e:	1d c0       	rjmp	.+58     	; 0x256a <wyswietl_numer+0x100>
    2530:	07 30       	cpi	r16, 0x07	; 7
    2532:	11 05       	cpc	r17, r1
    2534:	31 f1       	breq	.+76     	; 0x2582 <wyswietl_numer+0x118>
    2536:	08 30       	cpi	r16, 0x08	; 8
    2538:	11 05       	cpc	r17, r1
    253a:	3c f4       	brge	.+14     	; 0x254a <wyswietl_numer+0xe0>
    253c:	05 30       	cpi	r16, 0x05	; 5
    253e:	11 05       	cpc	r17, r1
    2540:	d1 f0       	breq	.+52     	; 0x2576 <wyswietl_numer+0x10c>
    2542:	06 30       	cpi	r16, 0x06	; 6
    2544:	11 05       	cpc	r17, r1
    2546:	39 f5       	brne	.+78     	; 0x2596 <wyswietl_numer+0x12c>
    2548:	19 c0       	rjmp	.+50     	; 0x257c <wyswietl_numer+0x112>
    254a:	08 30       	cpi	r16, 0x08	; 8
    254c:	11 05       	cpc	r17, r1
    254e:	e1 f0       	breq	.+56     	; 0x2588 <wyswietl_numer+0x11e>
    2550:	09 30       	cpi	r16, 0x09	; 9
    2552:	11 05       	cpc	r17, r1
    2554:	01 f5       	brne	.+64     	; 0x2596 <wyswietl_numer+0x12c>
    2556:	1b c0       	rjmp	.+54     	; 0x258e <wyswietl_numer+0x124>
    2558:	ce 01       	movw	r24, r28
    255a:	01 96       	adiw	r24, 0x01	; 1
    255c:	1a c0       	rjmp	.+52     	; 0x2592 <wyswietl_numer+0x128>
    255e:	ce 01       	movw	r24, r28
    2560:	03 96       	adiw	r24, 0x03	; 3
    2562:	17 c0       	rjmp	.+46     	; 0x2592 <wyswietl_numer+0x128>
    2564:	ce 01       	movw	r24, r28
    2566:	05 96       	adiw	r24, 0x05	; 5
    2568:	14 c0       	rjmp	.+40     	; 0x2592 <wyswietl_numer+0x128>
    256a:	ce 01       	movw	r24, r28
    256c:	07 96       	adiw	r24, 0x07	; 7
    256e:	11 c0       	rjmp	.+34     	; 0x2592 <wyswietl_numer+0x128>
    2570:	ce 01       	movw	r24, r28
    2572:	09 96       	adiw	r24, 0x09	; 9
    2574:	0e c0       	rjmp	.+28     	; 0x2592 <wyswietl_numer+0x128>
    2576:	ce 01       	movw	r24, r28
    2578:	0b 96       	adiw	r24, 0x0b	; 11
    257a:	0b c0       	rjmp	.+22     	; 0x2592 <wyswietl_numer+0x128>
    257c:	ce 01       	movw	r24, r28
    257e:	0d 96       	adiw	r24, 0x0d	; 13
    2580:	08 c0       	rjmp	.+16     	; 0x2592 <wyswietl_numer+0x128>
    2582:	ce 01       	movw	r24, r28
    2584:	0f 96       	adiw	r24, 0x0f	; 15
    2586:	05 c0       	rjmp	.+10     	; 0x2592 <wyswietl_numer+0x128>
    2588:	ce 01       	movw	r24, r28
    258a:	41 96       	adiw	r24, 0x11	; 17
    258c:	02 c0       	rjmp	.+4      	; 0x2592 <wyswietl_numer+0x128>
    258e:	ce 01       	movw	r24, r28
    2590:	43 96       	adiw	r24, 0x13	; 19
    2592:	0e 94 3b 13 	call	0x2676	; 0x2676 <lcd_str>
    2596:	64 96       	adiw	r28, 0x14	; 20
    2598:	0f b6       	in	r0, 0x3f	; 63
    259a:	f8 94       	cli
    259c:	de bf       	out	0x3e, r29	; 62
    259e:	0f be       	out	0x3f, r0	; 63
    25a0:	cd bf       	out	0x3d, r28	; 61
    25a2:	cf 91       	pop	r28
    25a4:	df 91       	pop	r29
    25a6:	1f 91       	pop	r17
    25a8:	0f 91       	pop	r16
    25aa:	08 95       	ret

000025ac <lcd_sendHalf>:
    25ac:	80 ff       	sbrs	r24, 0
    25ae:	02 c0       	rjmp	.+4      	; 0x25b4 <lcd_sendHalf+0x8>
    25b0:	db 9a       	sbi	0x1b, 3	; 27
    25b2:	01 c0       	rjmp	.+2      	; 0x25b6 <lcd_sendHalf+0xa>
    25b4:	db 98       	cbi	0x1b, 3	; 27
    25b6:	81 ff       	sbrs	r24, 1
    25b8:	02 c0       	rjmp	.+4      	; 0x25be <lcd_sendHalf+0x12>
    25ba:	dc 9a       	sbi	0x1b, 4	; 27
    25bc:	01 c0       	rjmp	.+2      	; 0x25c0 <lcd_sendHalf+0x14>
    25be:	dc 98       	cbi	0x1b, 4	; 27
    25c0:	82 ff       	sbrs	r24, 2
    25c2:	02 c0       	rjmp	.+4      	; 0x25c8 <lcd_sendHalf+0x1c>
    25c4:	dd 9a       	sbi	0x1b, 5	; 27
    25c6:	01 c0       	rjmp	.+2      	; 0x25ca <lcd_sendHalf+0x1e>
    25c8:	dd 98       	cbi	0x1b, 5	; 27
    25ca:	83 ff       	sbrs	r24, 3
    25cc:	02 c0       	rjmp	.+4      	; 0x25d2 <lcd_sendHalf+0x26>
    25ce:	de 9a       	sbi	0x1b, 6	; 27
    25d0:	08 95       	ret
    25d2:	de 98       	cbi	0x1b, 6	; 27
    25d4:	08 95       	ret

000025d6 <lcd_readHalf>:
    25d6:	89 b3       	in	r24, 0x19	; 25
    25d8:	90 e0       	ldi	r25, 0x00	; 0
    25da:	23 e0       	ldi	r18, 0x03	; 3
    25dc:	96 95       	lsr	r25
    25de:	87 95       	ror	r24
    25e0:	2a 95       	dec	r18
    25e2:	e1 f7       	brne	.-8      	; 0x25dc <lcd_readHalf+0x6>
    25e4:	81 70       	andi	r24, 0x01	; 1
    25e6:	cc 99       	sbic	0x19, 4	; 25
    25e8:	82 60       	ori	r24, 0x02	; 2
    25ea:	cd 99       	sbic	0x19, 5	; 25
    25ec:	84 60       	ori	r24, 0x04	; 4
    25ee:	ce 99       	sbic	0x19, 6	; 25
    25f0:	88 60       	ori	r24, 0x08	; 8
    25f2:	08 95       	ret

000025f4 <_lcd_read_byte>:
    25f4:	1f 93       	push	r17
    25f6:	d6 98       	cbi	0x1a, 6	; 26
    25f8:	d5 98       	cbi	0x1a, 5	; 26
    25fa:	d4 98       	cbi	0x1a, 4	; 26
    25fc:	d3 98       	cbi	0x1a, 3	; 26
    25fe:	d9 9a       	sbi	0x1b, 1	; 27
    2600:	da 9a       	sbi	0x1b, 2	; 27
    2602:	0e 94 eb 12 	call	0x25d6	; 0x25d6 <lcd_readHalf>
    2606:	18 2f       	mov	r17, r24
    2608:	12 95       	swap	r17
    260a:	10 7f       	andi	r17, 0xF0	; 240
    260c:	da 98       	cbi	0x1b, 2	; 27
    260e:	da 9a       	sbi	0x1b, 2	; 27
    2610:	0e 94 eb 12 	call	0x25d6	; 0x25d6 <lcd_readHalf>
    2614:	da 98       	cbi	0x1b, 2	; 27
    2616:	81 2b       	or	r24, r17
    2618:	1f 91       	pop	r17
    261a:	08 95       	ret

0000261c <check_BF>:
    261c:	d8 98       	cbi	0x1b, 0	; 27
    261e:	0e 94 fa 12 	call	0x25f4	; 0x25f4 <_lcd_read_byte>
    2622:	08 95       	ret

00002624 <_lcd_write_byte>:
    2624:	1f 93       	push	r17
    2626:	18 2f       	mov	r17, r24
    2628:	d6 9a       	sbi	0x1a, 6	; 26
    262a:	d5 9a       	sbi	0x1a, 5	; 26
    262c:	d4 9a       	sbi	0x1a, 4	; 26
    262e:	d3 9a       	sbi	0x1a, 3	; 26
    2630:	d9 98       	cbi	0x1b, 1	; 27
    2632:	da 9a       	sbi	0x1b, 2	; 27
    2634:	82 95       	swap	r24
    2636:	8f 70       	andi	r24, 0x0F	; 15
    2638:	0e 94 d6 12 	call	0x25ac	; 0x25ac <lcd_sendHalf>
    263c:	da 98       	cbi	0x1b, 2	; 27
    263e:	da 9a       	sbi	0x1b, 2	; 27
    2640:	81 2f       	mov	r24, r17
    2642:	0e 94 d6 12 	call	0x25ac	; 0x25ac <lcd_sendHalf>
    2646:	da 98       	cbi	0x1b, 2	; 27
    2648:	0e 94 0e 13 	call	0x261c	; 0x261c <check_BF>
    264c:	87 fd       	sbrc	r24, 7
    264e:	fc cf       	rjmp	.-8      	; 0x2648 <_lcd_write_byte+0x24>
    2650:	1f 91       	pop	r17
    2652:	08 95       	ret

00002654 <lcd_write_cmd>:
    2654:	d8 98       	cbi	0x1b, 0	; 27
    2656:	0e 94 12 13 	call	0x2624	; 0x2624 <_lcd_write_byte>
    265a:	08 95       	ret

0000265c <lcd_write_data>:
    265c:	d8 9a       	sbi	0x1b, 0	; 27
    265e:	0e 94 12 13 	call	0x2624	; 0x2624 <_lcd_write_byte>
    2662:	08 95       	ret

00002664 <lcd_char>:
    2664:	98 2f       	mov	r25, r24
    2666:	80 58       	subi	r24, 0x80	; 128
    2668:	88 30       	cpi	r24, 0x08	; 8
    266a:	08 f4       	brcc	.+2      	; 0x266e <lcd_char+0xa>
    266c:	97 70       	andi	r25, 0x07	; 7
    266e:	89 2f       	mov	r24, r25
    2670:	0e 94 2e 13 	call	0x265c	; 0x265c <lcd_write_data>
    2674:	08 95       	ret

00002676 <lcd_str>:
    2676:	cf 93       	push	r28
    2678:	df 93       	push	r29
    267a:	ec 01       	movw	r28, r24
    267c:	02 c0       	rjmp	.+4      	; 0x2682 <lcd_str+0xc>
    267e:	0e 94 32 13 	call	0x2664	; 0x2664 <lcd_char>
    2682:	89 91       	ld	r24, Y+
    2684:	88 23       	and	r24, r24
    2686:	d9 f7       	brne	.-10     	; 0x267e <lcd_str+0x8>
    2688:	df 91       	pop	r29
    268a:	cf 91       	pop	r28
    268c:	08 95       	ret

0000268e <lcd_str_P>:
    268e:	cf 93       	push	r28
    2690:	df 93       	push	r29
    2692:	ec 01       	movw	r28, r24
    2694:	02 c0       	rjmp	.+4      	; 0x269a <lcd_str_P+0xc>
    2696:	0e 94 32 13 	call	0x2664	; 0x2664 <lcd_char>
    269a:	fe 01       	movw	r30, r28
    269c:	21 96       	adiw	r28, 0x01	; 1
    269e:	84 91       	lpm	r24, Z+
    26a0:	88 23       	and	r24, r24
    26a2:	c9 f7       	brne	.-14     	; 0x2696 <lcd_str_P+0x8>
    26a4:	df 91       	pop	r29
    26a6:	cf 91       	pop	r28
    26a8:	08 95       	ret

000026aa <lcd_defchar>:
    26aa:	1f 93       	push	r17
    26ac:	cf 93       	push	r28
    26ae:	df 93       	push	r29
    26b0:	eb 01       	movw	r28, r22
    26b2:	90 e0       	ldi	r25, 0x00	; 0
    26b4:	87 70       	andi	r24, 0x07	; 7
    26b6:	90 70       	andi	r25, 0x00	; 0
    26b8:	08 96       	adiw	r24, 0x08	; 8
    26ba:	88 0f       	add	r24, r24
    26bc:	88 0f       	add	r24, r24
    26be:	88 0f       	add	r24, r24
    26c0:	0e 94 2a 13 	call	0x2654	; 0x2654 <lcd_write_cmd>
    26c4:	10 e0       	ldi	r17, 0x00	; 0
    26c6:	89 91       	ld	r24, Y+
    26c8:	0e 94 2e 13 	call	0x265c	; 0x265c <lcd_write_data>
    26cc:	1f 5f       	subi	r17, 0xFF	; 255
    26ce:	18 30       	cpi	r17, 0x08	; 8
    26d0:	d1 f7       	brne	.-12     	; 0x26c6 <lcd_defchar+0x1c>
    26d2:	df 91       	pop	r29
    26d4:	cf 91       	pop	r28
    26d6:	1f 91       	pop	r17
    26d8:	08 95       	ret

000026da <lcd_defchar_P>:
    26da:	0f 93       	push	r16
    26dc:	1f 93       	push	r17
    26de:	cf 93       	push	r28
    26e0:	df 93       	push	r29
    26e2:	8b 01       	movw	r16, r22
    26e4:	90 e0       	ldi	r25, 0x00	; 0
    26e6:	87 70       	andi	r24, 0x07	; 7
    26e8:	90 70       	andi	r25, 0x00	; 0
    26ea:	08 96       	adiw	r24, 0x08	; 8
    26ec:	88 0f       	add	r24, r24
    26ee:	88 0f       	add	r24, r24
    26f0:	88 0f       	add	r24, r24
    26f2:	0e 94 2a 13 	call	0x2654	; 0x2654 <lcd_write_cmd>
    26f6:	c0 e0       	ldi	r28, 0x00	; 0
    26f8:	d0 e0       	ldi	r29, 0x00	; 0
    26fa:	f8 01       	movw	r30, r16
    26fc:	ec 0f       	add	r30, r28
    26fe:	fd 1f       	adc	r31, r29
    2700:	e4 91       	lpm	r30, Z+
    2702:	8e 2f       	mov	r24, r30
    2704:	0e 94 2e 13 	call	0x265c	; 0x265c <lcd_write_data>
    2708:	21 96       	adiw	r28, 0x01	; 1
    270a:	c8 30       	cpi	r28, 0x08	; 8
    270c:	d1 05       	cpc	r29, r1
    270e:	a9 f7       	brne	.-22     	; 0x26fa <lcd_defchar_P+0x20>
    2710:	df 91       	pop	r29
    2712:	cf 91       	pop	r28
    2714:	1f 91       	pop	r17
    2716:	0f 91       	pop	r16
    2718:	08 95       	ret

0000271a <lcd_locate>:
    271a:	81 30       	cpi	r24, 0x01	; 1
    271c:	09 f4       	brne	.+2      	; 0x2720 <lcd_locate+0x6>
    271e:	80 e4       	ldi	r24, 0x40	; 64
    2720:	60 58       	subi	r22, 0x80	; 128
    2722:	86 0f       	add	r24, r22
    2724:	0e 94 2a 13 	call	0x2654	; 0x2654 <lcd_write_cmd>
    2728:	08 95       	ret

0000272a <lcd_cls>:
    272a:	81 e0       	ldi	r24, 0x01	; 1
    272c:	0e 94 2a 13 	call	0x2654	; 0x2654 <lcd_write_cmd>
    2730:	08 95       	ret

00002732 <lcd_init>:
    2732:	0f 93       	push	r16
    2734:	1f 93       	push	r17
    2736:	d6 9a       	sbi	0x1a, 6	; 26
    2738:	d5 9a       	sbi	0x1a, 5	; 26
    273a:	d4 9a       	sbi	0x1a, 4	; 26
    273c:	d3 9a       	sbi	0x1a, 3	; 26
    273e:	d0 9a       	sbi	0x1a, 0	; 26
    2740:	d2 9a       	sbi	0x1a, 2	; 26
    2742:	d1 9a       	sbi	0x1a, 1	; 26
    2744:	d8 9a       	sbi	0x1b, 0	; 27
    2746:	da 9a       	sbi	0x1b, 2	; 27
    2748:	d9 9a       	sbi	0x1b, 1	; 27
    274a:	80 e6       	ldi	r24, 0x60	; 96
    274c:	9a ee       	ldi	r25, 0xEA	; 234
    274e:	01 97       	sbiw	r24, 0x01	; 1
    2750:	f1 f7       	brne	.-4      	; 0x274e <lcd_init+0x1c>
    2752:	da 98       	cbi	0x1b, 2	; 27
    2754:	d8 98       	cbi	0x1b, 0	; 27
    2756:	d9 98       	cbi	0x1b, 1	; 27
    2758:	da 9a       	sbi	0x1b, 2	; 27
    275a:	83 e0       	ldi	r24, 0x03	; 3
    275c:	0e 94 d6 12 	call	0x25ac	; 0x25ac <lcd_sendHalf>
    2760:	da 98       	cbi	0x1b, 2	; 27
    2762:	80 e1       	ldi	r24, 0x10	; 16
    2764:	90 e4       	ldi	r25, 0x40	; 64
    2766:	01 97       	sbiw	r24, 0x01	; 1
    2768:	f1 f7       	brne	.-4      	; 0x2766 <lcd_init+0x34>
    276a:	da 9a       	sbi	0x1b, 2	; 27
    276c:	83 e0       	ldi	r24, 0x03	; 3
    276e:	0e 94 d6 12 	call	0x25ac	; 0x25ac <lcd_sendHalf>
    2772:	da 98       	cbi	0x1b, 2	; 27
    2774:	00 e9       	ldi	r16, 0x90	; 144
    2776:	11 e0       	ldi	r17, 0x01	; 1
    2778:	c8 01       	movw	r24, r16
    277a:	01 97       	sbiw	r24, 0x01	; 1
    277c:	f1 f7       	brne	.-4      	; 0x277a <lcd_init+0x48>
    277e:	da 9a       	sbi	0x1b, 2	; 27
    2780:	83 e0       	ldi	r24, 0x03	; 3
    2782:	0e 94 d6 12 	call	0x25ac	; 0x25ac <lcd_sendHalf>
    2786:	da 98       	cbi	0x1b, 2	; 27
    2788:	c8 01       	movw	r24, r16
    278a:	01 97       	sbiw	r24, 0x01	; 1
    278c:	f1 f7       	brne	.-4      	; 0x278a <lcd_init+0x58>
    278e:	da 9a       	sbi	0x1b, 2	; 27
    2790:	82 e0       	ldi	r24, 0x02	; 2
    2792:	0e 94 d6 12 	call	0x25ac	; 0x25ac <lcd_sendHalf>
    2796:	da 98       	cbi	0x1b, 2	; 27
    2798:	c8 01       	movw	r24, r16
    279a:	01 97       	sbiw	r24, 0x01	; 1
    279c:	f1 f7       	brne	.-4      	; 0x279a <lcd_init+0x68>
    279e:	88 e2       	ldi	r24, 0x28	; 40
    27a0:	0e 94 2a 13 	call	0x2654	; 0x2654 <lcd_write_cmd>
    27a4:	88 e0       	ldi	r24, 0x08	; 8
    27a6:	0e 94 2a 13 	call	0x2654	; 0x2654 <lcd_write_cmd>
    27aa:	8c e0       	ldi	r24, 0x0C	; 12
    27ac:	0e 94 2a 13 	call	0x2654	; 0x2654 <lcd_write_cmd>
    27b0:	86 e0       	ldi	r24, 0x06	; 6
    27b2:	0e 94 2a 13 	call	0x2654	; 0x2654 <lcd_write_cmd>
    27b6:	0e 94 95 13 	call	0x272a	; 0x272a <lcd_cls>
    27ba:	1f 91       	pop	r17
    27bc:	0f 91       	pop	r16
    27be:	08 95       	ret

000027c0 <lcd_defchar_E>:
    27c0:	0f 93       	push	r16
    27c2:	1f 93       	push	r17
    27c4:	cf 93       	push	r28
    27c6:	df 93       	push	r29
    27c8:	8b 01       	movw	r16, r22
    27ca:	90 e0       	ldi	r25, 0x00	; 0
    27cc:	87 70       	andi	r24, 0x07	; 7
    27ce:	90 70       	andi	r25, 0x00	; 0
    27d0:	08 96       	adiw	r24, 0x08	; 8
    27d2:	88 0f       	add	r24, r24
    27d4:	88 0f       	add	r24, r24
    27d6:	88 0f       	add	r24, r24
    27d8:	0e 94 2a 13 	call	0x2654	; 0x2654 <lcd_write_cmd>
    27dc:	c0 e0       	ldi	r28, 0x00	; 0
    27de:	d0 e0       	ldi	r29, 0x00	; 0
    27e0:	c8 01       	movw	r24, r16
    27e2:	8c 0f       	add	r24, r28
    27e4:	9d 1f       	adc	r25, r29
    27e6:	0e 94 01 1b 	call	0x3602	; 0x3602 <__eerd_byte_m32>
    27ea:	0e 94 2e 13 	call	0x265c	; 0x265c <lcd_write_data>
    27ee:	21 96       	adiw	r28, 0x01	; 1
    27f0:	c8 30       	cpi	r28, 0x08	; 8
    27f2:	d1 05       	cpc	r29, r1
    27f4:	a9 f7       	brne	.-22     	; 0x27e0 <lcd_defchar_E+0x20>
    27f6:	df 91       	pop	r29
    27f8:	cf 91       	pop	r28
    27fa:	1f 91       	pop	r17
    27fc:	0f 91       	pop	r16
    27fe:	08 95       	ret

00002800 <lcd_str_E>:
    2800:	cf 93       	push	r28
    2802:	df 93       	push	r29
    2804:	ec 01       	movw	r28, r24
    2806:	21 96       	adiw	r28, 0x01	; 1
    2808:	0e 94 01 1b 	call	0x3602	; 0x3602 <__eerd_byte_m32>
    280c:	98 2f       	mov	r25, r24
    280e:	81 50       	subi	r24, 0x01	; 1
    2810:	8e 3f       	cpi	r24, 0xFE	; 254
    2812:	28 f4       	brcc	.+10     	; 0x281e <lcd_str_E+0x1e>
    2814:	89 2f       	mov	r24, r25
    2816:	0e 94 32 13 	call	0x2664	; 0x2664 <lcd_char>
    281a:	ce 01       	movw	r24, r28
    281c:	f3 cf       	rjmp	.-26     	; 0x2804 <lcd_str_E+0x4>
    281e:	df 91       	pop	r29
    2820:	cf 91       	pop	r28
    2822:	08 95       	ret

00002824 <lcd_hex>:
    2824:	df 93       	push	r29
    2826:	cf 93       	push	r28
    2828:	cd b7       	in	r28, 0x3d	; 61
    282a:	de b7       	in	r29, 0x3e	; 62
    282c:	61 97       	sbiw	r28, 0x11	; 17
    282e:	0f b6       	in	r0, 0x3f	; 63
    2830:	f8 94       	cli
    2832:	de bf       	out	0x3e, r29	; 62
    2834:	0f be       	out	0x3f, r0	; 63
    2836:	cd bf       	out	0x3d, r28	; 61
    2838:	ae 01       	movw	r20, r28
    283a:	4f 5f       	subi	r20, 0xFF	; 255
    283c:	5f 4f       	sbci	r21, 0xFF	; 255
    283e:	20 e1       	ldi	r18, 0x10	; 16
    2840:	30 e0       	ldi	r19, 0x00	; 0
    2842:	0e 94 cd 1a 	call	0x359a	; 0x359a <ltoa>
    2846:	0e 94 3b 13 	call	0x2676	; 0x2676 <lcd_str>
    284a:	61 96       	adiw	r28, 0x11	; 17
    284c:	0f b6       	in	r0, 0x3f	; 63
    284e:	f8 94       	cli
    2850:	de bf       	out	0x3e, r29	; 62
    2852:	0f be       	out	0x3f, r0	; 63
    2854:	cd bf       	out	0x3d, r28	; 61
    2856:	cf 91       	pop	r28
    2858:	df 91       	pop	r29
    285a:	08 95       	ret

0000285c <lcd_int>:
    285c:	df 93       	push	r29
    285e:	cf 93       	push	r28
    2860:	cd b7       	in	r28, 0x3d	; 61
    2862:	de b7       	in	r29, 0x3e	; 62
    2864:	61 97       	sbiw	r28, 0x11	; 17
    2866:	0f b6       	in	r0, 0x3f	; 63
    2868:	f8 94       	cli
    286a:	de bf       	out	0x3e, r29	; 62
    286c:	0f be       	out	0x3f, r0	; 63
    286e:	cd bf       	out	0x3d, r28	; 61
    2870:	be 01       	movw	r22, r28
    2872:	6f 5f       	subi	r22, 0xFF	; 255
    2874:	7f 4f       	sbci	r23, 0xFF	; 255
    2876:	4a e0       	ldi	r20, 0x0A	; 10
    2878:	50 e0       	ldi	r21, 0x00	; 0
    287a:	0e 94 ac 1a 	call	0x3558	; 0x3558 <itoa>
    287e:	0e 94 3b 13 	call	0x2676	; 0x2676 <lcd_str>
    2882:	61 96       	adiw	r28, 0x11	; 17
    2884:	0f b6       	in	r0, 0x3f	; 63
    2886:	f8 94       	cli
    2888:	de bf       	out	0x3e, r29	; 62
    288a:	0f be       	out	0x3f, r0	; 63
    288c:	cd bf       	out	0x3d, r28	; 61
    288e:	cf 91       	pop	r28
    2890:	df 91       	pop	r29
    2892:	08 95       	ret

00002894 <wprowadz_numer>:
    2894:	cf 93       	push	r28
    2896:	df 93       	push	r29
    2898:	10 92 20 02 	sts	0x0220, r1
    289c:	c0 e9       	ldi	r28, 0x90	; 144
    289e:	d1 e0       	ldi	r29, 0x01	; 1
    28a0:	6d c0       	rjmp	.+218    	; 0x297c <wprowadz_numer+0xe8>
    28a2:	80 ed       	ldi	r24, 0xD0	; 208
    28a4:	97 e0       	ldi	r25, 0x07	; 7
    28a6:	fe 01       	movw	r30, r28
    28a8:	31 97       	sbiw	r30, 0x01	; 1
    28aa:	f1 f7       	brne	.-4      	; 0x28a8 <wprowadz_numer+0x14>
    28ac:	01 97       	sbiw	r24, 0x01	; 1
    28ae:	d9 f7       	brne	.-10     	; 0x28a6 <wprowadz_numer+0x12>
    28b0:	10 92 22 02 	sts	0x0222, r1
    28b4:	10 92 21 02 	sts	0x0221, r1
    28b8:	80 e0       	ldi	r24, 0x00	; 0
    28ba:	0e 94 35 12 	call	0x246a	; 0x246a <wyswietl_numer>
    28be:	80 91 20 02 	lds	r24, 0x0220
    28c2:	88 23       	and	r24, r24
    28c4:	19 f4       	brne	.+6      	; 0x28cc <wprowadz_numer+0x38>
    28c6:	8c e0       	ldi	r24, 0x0C	; 12
    28c8:	90 e0       	ldi	r25, 0x00	; 0
    28ca:	09 c0       	rjmp	.+18     	; 0x28de <wprowadz_numer+0x4a>
    28cc:	81 30       	cpi	r24, 0x01	; 1
    28ce:	19 f4       	brne	.+6      	; 0x28d6 <wprowadz_numer+0x42>
    28d0:	8d e0       	ldi	r24, 0x0D	; 13
    28d2:	90 e0       	ldi	r25, 0x00	; 0
    28d4:	04 c0       	rjmp	.+8      	; 0x28de <wprowadz_numer+0x4a>
    28d6:	82 30       	cpi	r24, 0x02	; 2
    28d8:	61 f5       	brne	.+88     	; 0x2932 <wprowadz_numer+0x9e>
    28da:	8e e0       	ldi	r24, 0x0E	; 14
    28dc:	90 e0       	ldi	r25, 0x00	; 0
    28de:	0e 94 a7 05 	call	0xb4e	; 0xb4e <komunikat_glosowy>
    28e2:	27 c0       	rjmp	.+78     	; 0x2932 <wprowadz_numer+0x9e>
    28e4:	98 99       	sbic	0x13, 0	; 19
    28e6:	2b c0       	rjmp	.+86     	; 0x293e <wprowadz_numer+0xaa>
    28e8:	80 e2       	ldi	r24, 0x20	; 32
    28ea:	93 e0       	ldi	r25, 0x03	; 3
    28ec:	fe 01       	movw	r30, r28
    28ee:	31 97       	sbiw	r30, 0x01	; 1
    28f0:	f1 f7       	brne	.-4      	; 0x28ee <wprowadz_numer+0x5a>
    28f2:	01 97       	sbiw	r24, 0x01	; 1
    28f4:	d9 f7       	brne	.-10     	; 0x28ec <wprowadz_numer+0x58>
    28f6:	98 99       	sbic	0x13, 0	; 19
    28f8:	22 c0       	rjmp	.+68     	; 0x293e <wprowadz_numer+0xaa>
    28fa:	20 91 21 02 	lds	r18, 0x0221
    28fe:	30 91 22 02 	lds	r19, 0x0222
    2902:	2f 5f       	subi	r18, 0xFF	; 255
    2904:	3f 4f       	sbci	r19, 0xFF	; 255
    2906:	30 93 22 02 	sts	0x0222, r19
    290a:	20 93 21 02 	sts	0x0221, r18
    290e:	80 ed       	ldi	r24, 0xD0	; 208
    2910:	97 e0       	ldi	r25, 0x07	; 7
    2912:	fe 01       	movw	r30, r28
    2914:	31 97       	sbiw	r30, 0x01	; 1
    2916:	f1 f7       	brne	.-4      	; 0x2914 <wprowadz_numer+0x80>
    2918:	01 97       	sbiw	r24, 0x01	; 1
    291a:	d9 f7       	brne	.-10     	; 0x2912 <wprowadz_numer+0x7e>
    291c:	2a 30       	cpi	r18, 0x0A	; 10
    291e:	31 05       	cpc	r19, r1
    2920:	24 f0       	brlt	.+8      	; 0x292a <wprowadz_numer+0x96>
    2922:	10 92 22 02 	sts	0x0222, r1
    2926:	10 92 21 02 	sts	0x0221, r1
    292a:	80 91 21 02 	lds	r24, 0x0221
    292e:	0e 94 35 12 	call	0x246a	; 0x246a <wyswietl_numer>
    2932:	80 91 21 02 	lds	r24, 0x0221
    2936:	90 91 22 02 	lds	r25, 0x0222
    293a:	0e 94 a7 05 	call	0xb4e	; 0xb4e <komunikat_glosowy>
    293e:	99 99       	sbic	0x13, 1	; 19
    2940:	d1 cf       	rjmp	.-94     	; 0x28e4 <wprowadz_numer+0x50>
    2942:	a0 91 20 02 	lds	r26, 0x0220
    2946:	b0 e0       	ldi	r27, 0x00	; 0
    2948:	80 91 21 02 	lds	r24, 0x0221
    294c:	90 91 22 02 	lds	r25, 0x0222
    2950:	fd 01       	movw	r30, r26
    2952:	ee 0f       	add	r30, r30
    2954:	ff 1f       	adc	r31, r31
    2956:	e8 5d       	subi	r30, 0xD8	; 216
    2958:	fd 4f       	sbci	r31, 0xFD	; 253
    295a:	80 83       	st	Z, r24
    295c:	91 83       	std	Z+1, r25	; 0x01
    295e:	80 5d       	subi	r24, 0xD0	; 208
    2960:	80 93 23 02 	sts	0x0223, r24
    2964:	ac 5d       	subi	r26, 0xDC	; 220
    2966:	bd 4f       	sbci	r27, 0xFD	; 253
    2968:	8c 93       	st	X, r24
    296a:	82 e1       	ldi	r24, 0x12	; 18
    296c:	90 e0       	ldi	r25, 0x00	; 0
    296e:	0e 94 a7 05 	call	0xb4e	; 0xb4e <komunikat_glosowy>
    2972:	80 91 20 02 	lds	r24, 0x0220
    2976:	8f 5f       	subi	r24, 0xFF	; 255
    2978:	80 93 20 02 	sts	0x0220, r24
    297c:	80 91 20 02 	lds	r24, 0x0220
    2980:	83 30       	cpi	r24, 0x03	; 3
    2982:	08 f4       	brcc	.+2      	; 0x2986 <wprowadz_numer+0xf2>
    2984:	8e cf       	rjmp	.-228    	; 0x28a2 <wprowadz_numer+0xe>
    2986:	83 e1       	ldi	r24, 0x13	; 19
    2988:	90 e0       	ldi	r25, 0x00	; 0
    298a:	0e 94 a7 05 	call	0xb4e	; 0xb4e <komunikat_glosowy>
    298e:	40 91 28 02 	lds	r20, 0x0228
    2992:	50 91 29 02 	lds	r21, 0x0229
    2996:	41 15       	cp	r20, r1
    2998:	51 05       	cpc	r21, r1
    299a:	09 f0       	breq	.+2      	; 0x299e <wprowadz_numer+0x10a>
    299c:	3e c0       	rjmp	.+124    	; 0x2a1a <wprowadz_numer+0x186>
    299e:	20 91 2a 02 	lds	r18, 0x022A
    29a2:	30 91 2b 02 	lds	r19, 0x022B
    29a6:	21 15       	cp	r18, r1
    29a8:	31 05       	cpc	r19, r1
    29aa:	59 f4       	brne	.+22     	; 0x29c2 <wprowadz_numer+0x12e>
    29ac:	80 91 2c 02 	lds	r24, 0x022C
    29b0:	90 91 2d 02 	lds	r25, 0x022D
    29b4:	04 97       	sbiw	r24, 0x04	; 4
    29b6:	99 f4       	brne	.+38     	; 0x29de <wprowadz_numer+0x14a>
    29b8:	92 e3       	ldi	r25, 0x32	; 50
    29ba:	90 93 30 02 	sts	0x0230, r25
    29be:	83 e3       	ldi	r24, 0x33	; 51
    29c0:	00 c1       	rjmp	.+512    	; 0x2bc2 <wprowadz_numer+0x32e>
    29c2:	21 30       	cpi	r18, 0x01	; 1
    29c4:	31 05       	cpc	r19, r1
    29c6:	59 f4       	brne	.+22     	; 0x29de <wprowadz_numer+0x14a>
    29c8:	80 91 2c 02 	lds	r24, 0x022C
    29cc:	90 91 2d 02 	lds	r25, 0x022D
    29d0:	01 97       	sbiw	r24, 0x01	; 1
    29d2:	19 f5       	brne	.+70     	; 0x2a1a <wprowadz_numer+0x186>
    29d4:	98 e2       	ldi	r25, 0x28	; 40
    29d6:	90 93 30 02 	sts	0x0230, r25
    29da:	8e e2       	ldi	r24, 0x2E	; 46
    29dc:	f2 c0       	rjmp	.+484    	; 0x2bc2 <wprowadz_numer+0x32e>
    29de:	22 30       	cpi	r18, 0x02	; 2
    29e0:	31 05       	cpc	r19, r1
    29e2:	d9 f4       	brne	.+54     	; 0x2a1a <wprowadz_numer+0x186>
    29e4:	80 91 2c 02 	lds	r24, 0x022C
    29e8:	90 91 2d 02 	lds	r25, 0x022D
    29ec:	00 97       	sbiw	r24, 0x00	; 0
    29ee:	29 f4       	brne	.+10     	; 0x29fa <wprowadz_numer+0x166>
    29f0:	93 e2       	ldi	r25, 0x23	; 35
    29f2:	90 93 30 02 	sts	0x0230, r25
    29f6:	84 e2       	ldi	r24, 0x24	; 36
    29f8:	e4 c0       	rjmp	.+456    	; 0x2bc2 <wprowadz_numer+0x32e>
    29fa:	85 30       	cpi	r24, 0x05	; 5
    29fc:	91 05       	cpc	r25, r1
    29fe:	29 f4       	brne	.+10     	; 0x2a0a <wprowadz_numer+0x176>
    2a00:	90 e3       	ldi	r25, 0x30	; 48
    2a02:	90 93 30 02 	sts	0x0230, r25
    2a06:	81 e3       	ldi	r24, 0x31	; 49
    2a08:	dc c0       	rjmp	.+440    	; 0x2bc2 <wprowadz_numer+0x32e>
    2a0a:	08 97       	sbiw	r24, 0x08	; 8
    2a0c:	09 f0       	breq	.+2      	; 0x2a10 <wprowadz_numer+0x17c>
    2a0e:	76 c0       	rjmp	.+236    	; 0x2afc <wprowadz_numer+0x268>
    2a10:	90 e2       	ldi	r25, 0x20	; 32
    2a12:	90 93 30 02 	sts	0x0230, r25
    2a16:	8f e2       	ldi	r24, 0x2F	; 47
    2a18:	d4 c0       	rjmp	.+424    	; 0x2bc2 <wprowadz_numer+0x32e>
    2a1a:	41 30       	cpi	r20, 0x01	; 1
    2a1c:	51 05       	cpc	r21, r1
    2a1e:	09 f0       	breq	.+2      	; 0x2a22 <wprowadz_numer+0x18e>
    2a20:	6d c0       	rjmp	.+218    	; 0x2afc <wprowadz_numer+0x268>
    2a22:	20 91 2a 02 	lds	r18, 0x022A
    2a26:	30 91 2b 02 	lds	r19, 0x022B
    2a2a:	21 30       	cpi	r18, 0x01	; 1
    2a2c:	31 05       	cpc	r19, r1
    2a2e:	59 f4       	brne	.+22     	; 0x2a46 <wprowadz_numer+0x1b2>
    2a30:	80 91 2c 02 	lds	r24, 0x022C
    2a34:	90 91 2d 02 	lds	r25, 0x022D
    2a38:	02 97       	sbiw	r24, 0x02	; 2
    2a3a:	99 f4       	brne	.+38     	; 0x2a62 <wprowadz_numer+0x1ce>
    2a3c:	94 e3       	ldi	r25, 0x34	; 52
    2a3e:	90 93 30 02 	sts	0x0230, r25
    2a42:	85 e3       	ldi	r24, 0x35	; 53
    2a44:	be c0       	rjmp	.+380    	; 0x2bc2 <wprowadz_numer+0x32e>
    2a46:	22 30       	cpi	r18, 0x02	; 2
    2a48:	31 05       	cpc	r19, r1
    2a4a:	59 f4       	brne	.+22     	; 0x2a62 <wprowadz_numer+0x1ce>
    2a4c:	80 91 2c 02 	lds	r24, 0x022C
    2a50:	90 91 2d 02 	lds	r25, 0x022D
    2a54:	02 97       	sbiw	r24, 0x02	; 2
    2a56:	99 f4       	brne	.+38     	; 0x2a7e <wprowadz_numer+0x1ea>
    2a58:	90 e2       	ldi	r25, 0x20	; 32
    2a5a:	90 93 30 02 	sts	0x0230, r25
    2a5e:	81 e2       	ldi	r24, 0x21	; 33
    2a60:	b0 c0       	rjmp	.+352    	; 0x2bc2 <wprowadz_numer+0x32e>
    2a62:	23 30       	cpi	r18, 0x03	; 3
    2a64:	31 05       	cpc	r19, r1
    2a66:	59 f4       	brne	.+22     	; 0x2a7e <wprowadz_numer+0x1ea>
    2a68:	80 91 2c 02 	lds	r24, 0x022C
    2a6c:	90 91 2d 02 	lds	r25, 0x022D
    2a70:	03 97       	sbiw	r24, 0x03	; 3
    2a72:	d9 f4       	brne	.+54     	; 0x2aaa <wprowadz_numer+0x216>
    2a74:	9d e3       	ldi	r25, 0x3D	; 61
    2a76:	90 93 30 02 	sts	0x0230, r25
    2a7a:	8e e3       	ldi	r24, 0x3E	; 62
    2a7c:	a2 c0       	rjmp	.+324    	; 0x2bc2 <wprowadz_numer+0x32e>
    2a7e:	25 30       	cpi	r18, 0x05	; 5
    2a80:	31 05       	cpc	r19, r1
    2a82:	99 f4       	brne	.+38     	; 0x2aaa <wprowadz_numer+0x216>
    2a84:	80 91 2c 02 	lds	r24, 0x022C
    2a88:	90 91 2d 02 	lds	r25, 0x022D
    2a8c:	84 30       	cpi	r24, 0x04	; 4
    2a8e:	91 05       	cpc	r25, r1
    2a90:	29 f4       	brne	.+10     	; 0x2a9c <wprowadz_numer+0x208>
    2a92:	9e e1       	ldi	r25, 0x1E	; 30
    2a94:	90 93 30 02 	sts	0x0230, r25
    2a98:	82 e2       	ldi	r24, 0x22	; 34
    2a9a:	93 c0       	rjmp	.+294    	; 0x2bc2 <wprowadz_numer+0x32e>
    2a9c:	08 97       	sbiw	r24, 0x08	; 8
    2a9e:	81 f4       	brne	.+32     	; 0x2ac0 <wprowadz_numer+0x22c>
    2aa0:	9a e2       	ldi	r25, 0x2A	; 42
    2aa2:	90 93 30 02 	sts	0x0230, r25
    2aa6:	8b e2       	ldi	r24, 0x2B	; 43
    2aa8:	8c c0       	rjmp	.+280    	; 0x2bc2 <wprowadz_numer+0x32e>
    2aaa:	27 30       	cpi	r18, 0x07	; 7
    2aac:	31 05       	cpc	r19, r1
    2aae:	41 f4       	brne	.+16     	; 0x2ac0 <wprowadz_numer+0x22c>
    2ab0:	80 91 2c 02 	lds	r24, 0x022C
    2ab4:	90 91 2d 02 	lds	r25, 0x022D
    2ab8:	02 97       	sbiw	r24, 0x02	; 2
    2aba:	01 f5       	brne	.+64     	; 0x2afc <wprowadz_numer+0x268>
    2abc:	99 e2       	ldi	r25, 0x29	; 41
    2abe:	1a c0       	rjmp	.+52     	; 0x2af4 <wprowadz_numer+0x260>
    2ac0:	28 30       	cpi	r18, 0x08	; 8
    2ac2:	31 05       	cpc	r19, r1
    2ac4:	d9 f4       	brne	.+54     	; 0x2afc <wprowadz_numer+0x268>
    2ac6:	80 91 2c 02 	lds	r24, 0x022C
    2aca:	90 91 2d 02 	lds	r25, 0x022D
    2ace:	84 30       	cpi	r24, 0x04	; 4
    2ad0:	91 05       	cpc	r25, r1
    2ad2:	29 f4       	brne	.+10     	; 0x2ade <wprowadz_numer+0x24a>
    2ad4:	98 e2       	ldi	r25, 0x28	; 40
    2ad6:	90 93 30 02 	sts	0x0230, r25
    2ada:	86 e2       	ldi	r24, 0x26	; 38
    2adc:	72 c0       	rjmp	.+228    	; 0x2bc2 <wprowadz_numer+0x32e>
    2ade:	86 30       	cpi	r24, 0x06	; 6
    2ae0:	91 05       	cpc	r25, r1
    2ae2:	29 f4       	brne	.+10     	; 0x2aee <wprowadz_numer+0x25a>
    2ae4:	96 e2       	ldi	r25, 0x26	; 38
    2ae6:	90 93 30 02 	sts	0x0230, r25
    2aea:	87 e2       	ldi	r24, 0x27	; 39
    2aec:	6a c0       	rjmp	.+212    	; 0x2bc2 <wprowadz_numer+0x32e>
    2aee:	09 97       	sbiw	r24, 0x09	; 9
    2af0:	31 f5       	brne	.+76     	; 0x2b3e <wprowadz_numer+0x2aa>
    2af2:	90 e2       	ldi	r25, 0x20	; 32
    2af4:	90 93 30 02 	sts	0x0230, r25
    2af8:	85 e2       	ldi	r24, 0x25	; 37
    2afa:	63 c0       	rjmp	.+198    	; 0x2bc2 <wprowadz_numer+0x32e>
    2afc:	43 30       	cpi	r20, 0x03	; 3
    2afe:	51 05       	cpc	r21, r1
    2b00:	f1 f4       	brne	.+60     	; 0x2b3e <wprowadz_numer+0x2aa>
    2b02:	80 91 2a 02 	lds	r24, 0x022A
    2b06:	90 91 2b 02 	lds	r25, 0x022B
    2b0a:	00 97       	sbiw	r24, 0x00	; 0
    2b0c:	59 f4       	brne	.+22     	; 0x2b24 <wprowadz_numer+0x290>
    2b0e:	80 91 2c 02 	lds	r24, 0x022C
    2b12:	90 91 2d 02 	lds	r25, 0x022D
    2b16:	03 97       	sbiw	r24, 0x03	; 3
    2b18:	91 f4       	brne	.+36     	; 0x2b3e <wprowadz_numer+0x2aa>
    2b1a:	98 e3       	ldi	r25, 0x38	; 56
    2b1c:	90 93 30 02 	sts	0x0230, r25
    2b20:	89 e3       	ldi	r24, 0x39	; 57
    2b22:	4f c0       	rjmp	.+158    	; 0x2bc2 <wprowadz_numer+0x32e>
    2b24:	02 97       	sbiw	r24, 0x02	; 2
    2b26:	59 f4       	brne	.+22     	; 0x2b3e <wprowadz_numer+0x2aa>
    2b28:	80 91 2c 02 	lds	r24, 0x022C
    2b2c:	90 91 2d 02 	lds	r25, 0x022D
    2b30:	89 2b       	or	r24, r25
    2b32:	31 f5       	brne	.+76     	; 0x2b80 <wprowadz_numer+0x2ec>
    2b34:	96 e3       	ldi	r25, 0x36	; 54
    2b36:	90 93 30 02 	sts	0x0230, r25
    2b3a:	87 e3       	ldi	r24, 0x37	; 55
    2b3c:	42 c0       	rjmp	.+132    	; 0x2bc2 <wprowadz_numer+0x32e>
    2b3e:	45 30       	cpi	r20, 0x05	; 5
    2b40:	51 05       	cpc	r21, r1
    2b42:	f1 f4       	brne	.+60     	; 0x2b80 <wprowadz_numer+0x2ec>
    2b44:	80 91 2a 02 	lds	r24, 0x022A
    2b48:	90 91 2b 02 	lds	r25, 0x022B
    2b4c:	00 97       	sbiw	r24, 0x00	; 0
    2b4e:	59 f4       	brne	.+22     	; 0x2b66 <wprowadz_numer+0x2d2>
    2b50:	80 91 2c 02 	lds	r24, 0x022C
    2b54:	90 91 2d 02 	lds	r25, 0x022D
    2b58:	03 97       	sbiw	r24, 0x03	; 3
    2b5a:	91 f4       	brne	.+36     	; 0x2b80 <wprowadz_numer+0x2ec>
    2b5c:	9c e2       	ldi	r25, 0x2C	; 44
    2b5e:	90 93 30 02 	sts	0x0230, r25
    2b62:	8d e2       	ldi	r24, 0x2D	; 45
    2b64:	2e c0       	rjmp	.+92     	; 0x2bc2 <wprowadz_numer+0x32e>
    2b66:	02 97       	sbiw	r24, 0x02	; 2
    2b68:	59 f4       	brne	.+22     	; 0x2b80 <wprowadz_numer+0x2ec>
    2b6a:	80 91 2c 02 	lds	r24, 0x022C
    2b6e:	90 91 2d 02 	lds	r25, 0x022D
    2b72:	03 97       	sbiw	r24, 0x03	; 3
    2b74:	c9 f5       	brne	.+114    	; 0x2be8 <wprowadz_numer+0x354>
    2b76:	9e e1       	ldi	r25, 0x1E	; 30
    2b78:	90 93 30 02 	sts	0x0230, r25
    2b7c:	8f e1       	ldi	r24, 0x1F	; 31
    2b7e:	21 c0       	rjmp	.+66     	; 0x2bc2 <wprowadz_numer+0x32e>
    2b80:	47 30       	cpi	r20, 0x07	; 7
    2b82:	51 05       	cpc	r21, r1
    2b84:	89 f5       	brne	.+98     	; 0x2be8 <wprowadz_numer+0x354>
    2b86:	80 91 2a 02 	lds	r24, 0x022A
    2b8a:	90 91 2b 02 	lds	r25, 0x022B
    2b8e:	81 30       	cpi	r24, 0x01	; 1
    2b90:	91 05       	cpc	r25, r1
    2b92:	59 f4       	brne	.+22     	; 0x2baa <wprowadz_numer+0x316>
    2b94:	80 91 2c 02 	lds	r24, 0x022C
    2b98:	90 91 2d 02 	lds	r25, 0x022D
    2b9c:	04 97       	sbiw	r24, 0x04	; 4
    2b9e:	21 f5       	brne	.+72     	; 0x2be8 <wprowadz_numer+0x354>
    2ba0:	90 e2       	ldi	r25, 0x20	; 32
    2ba2:	90 93 30 02 	sts	0x0230, r25
    2ba6:	8c e3       	ldi	r24, 0x3C	; 60
    2ba8:	0c c0       	rjmp	.+24     	; 0x2bc2 <wprowadz_numer+0x32e>
    2baa:	02 97       	sbiw	r24, 0x02	; 2
    2bac:	e9 f4       	brne	.+58     	; 0x2be8 <wprowadz_numer+0x354>
    2bae:	80 91 2c 02 	lds	r24, 0x022C
    2bb2:	90 91 2d 02 	lds	r25, 0x022D
    2bb6:	89 2b       	or	r24, r25
    2bb8:	b9 f4       	brne	.+46     	; 0x2be8 <wprowadz_numer+0x354>
    2bba:	9a e3       	ldi	r25, 0x3A	; 58
    2bbc:	90 93 30 02 	sts	0x0230, r25
    2bc0:	8b e3       	ldi	r24, 0x3B	; 59
    2bc2:	80 93 31 02 	sts	0x0231, r24
    2bc6:	90 93 21 02 	sts	0x0221, r25
    2bca:	10 92 22 02 	sts	0x0222, r1
    2bce:	80 91 21 02 	lds	r24, 0x0221
    2bd2:	0e 94 35 12 	call	0x246a	; 0x246a <wyswietl_numer>
    2bd6:	80 91 21 02 	lds	r24, 0x0221
    2bda:	90 91 22 02 	lds	r25, 0x0222
    2bde:	0e 94 a7 05 	call	0xb4e	; 0xb4e <komunikat_glosowy>
    2be2:	c0 e9       	ldi	r28, 0x90	; 144
    2be4:	d1 e0       	ldi	r29, 0x01	; 1
    2be6:	5c c0       	rjmp	.+184    	; 0x2ca0 <wprowadz_numer+0x40c>
    2be8:	81 e0       	ldi	r24, 0x01	; 1
    2bea:	60 e0       	ldi	r22, 0x00	; 0
    2bec:	0e 94 8d 13 	call	0x271a	; 0x271a <lcd_locate>
    2bf0:	80 eb       	ldi	r24, 0xB0	; 176
    2bf2:	91 e0       	ldi	r25, 0x01	; 1
    2bf4:	0e 94 3b 13 	call	0x2676	; 0x2676 <lcd_str>
    2bf8:	80 e2       	ldi	r24, 0x20	; 32
    2bfa:	9e e4       	ldi	r25, 0x4E	; 78
    2bfc:	20 e9       	ldi	r18, 0x90	; 144
    2bfe:	31 e0       	ldi	r19, 0x01	; 1
    2c00:	f9 01       	movw	r30, r18
    2c02:	31 97       	sbiw	r30, 0x01	; 1
    2c04:	f1 f7       	brne	.-4      	; 0x2c02 <wprowadz_numer+0x36e>
    2c06:	01 97       	sbiw	r24, 0x01	; 1
    2c08:	d9 f7       	brne	.-10     	; 0x2c00 <wprowadz_numer+0x36c>
    2c0a:	81 e0       	ldi	r24, 0x01	; 1
    2c0c:	60 e0       	ldi	r22, 0x00	; 0
    2c0e:	0e 94 8d 13 	call	0x271a	; 0x271a <lcd_locate>
    2c12:	8a eb       	ldi	r24, 0xBA	; 186
    2c14:	91 e0       	ldi	r25, 0x01	; 1
    2c16:	0e 94 3b 13 	call	0x2676	; 0x2676 <lcd_str>
    2c1a:	86 e1       	ldi	r24, 0x16	; 22
    2c1c:	90 e0       	ldi	r25, 0x00	; 0
    2c1e:	74 c0       	rjmp	.+232    	; 0x2d08 <wprowadz_numer+0x474>
    2c20:	98 99       	sbic	0x13, 0	; 19
    2c22:	1e c0       	rjmp	.+60     	; 0x2c60 <wprowadz_numer+0x3cc>
    2c24:	80 e2       	ldi	r24, 0x20	; 32
    2c26:	93 e0       	ldi	r25, 0x03	; 3
    2c28:	fe 01       	movw	r30, r28
    2c2a:	31 97       	sbiw	r30, 0x01	; 1
    2c2c:	f1 f7       	brne	.-4      	; 0x2c2a <wprowadz_numer+0x396>
    2c2e:	01 97       	sbiw	r24, 0x01	; 1
    2c30:	d9 f7       	brne	.-10     	; 0x2c28 <wprowadz_numer+0x394>
    2c32:	98 99       	sbic	0x13, 0	; 19
    2c34:	15 c0       	rjmp	.+42     	; 0x2c60 <wprowadz_numer+0x3cc>
    2c36:	80 91 31 02 	lds	r24, 0x0231
    2c3a:	80 93 21 02 	sts	0x0221, r24
    2c3e:	10 92 22 02 	sts	0x0222, r1
    2c42:	0e 94 35 12 	call	0x246a	; 0x246a <wyswietl_numer>
    2c46:	80 91 21 02 	lds	r24, 0x0221
    2c4a:	90 91 22 02 	lds	r25, 0x0222
    2c4e:	0e 94 a7 05 	call	0xb4e	; 0xb4e <komunikat_glosowy>
    2c52:	80 ed       	ldi	r24, 0xD0	; 208
    2c54:	97 e0       	ldi	r25, 0x07	; 7
    2c56:	fe 01       	movw	r30, r28
    2c58:	31 97       	sbiw	r30, 0x01	; 1
    2c5a:	f1 f7       	brne	.-4      	; 0x2c58 <wprowadz_numer+0x3c4>
    2c5c:	01 97       	sbiw	r24, 0x01	; 1
    2c5e:	d9 f7       	brne	.-10     	; 0x2c56 <wprowadz_numer+0x3c2>
    2c60:	98 99       	sbic	0x13, 0	; 19
    2c62:	1e c0       	rjmp	.+60     	; 0x2ca0 <wprowadz_numer+0x40c>
    2c64:	80 e2       	ldi	r24, 0x20	; 32
    2c66:	93 e0       	ldi	r25, 0x03	; 3
    2c68:	fe 01       	movw	r30, r28
    2c6a:	31 97       	sbiw	r30, 0x01	; 1
    2c6c:	f1 f7       	brne	.-4      	; 0x2c6a <wprowadz_numer+0x3d6>
    2c6e:	01 97       	sbiw	r24, 0x01	; 1
    2c70:	d9 f7       	brne	.-10     	; 0x2c68 <wprowadz_numer+0x3d4>
    2c72:	98 99       	sbic	0x13, 0	; 19
    2c74:	15 c0       	rjmp	.+42     	; 0x2ca0 <wprowadz_numer+0x40c>
    2c76:	80 91 30 02 	lds	r24, 0x0230
    2c7a:	80 93 21 02 	sts	0x0221, r24
    2c7e:	10 92 22 02 	sts	0x0222, r1
    2c82:	0e 94 35 12 	call	0x246a	; 0x246a <wyswietl_numer>
    2c86:	80 91 21 02 	lds	r24, 0x0221
    2c8a:	90 91 22 02 	lds	r25, 0x0222
    2c8e:	0e 94 a7 05 	call	0xb4e	; 0xb4e <komunikat_glosowy>
    2c92:	80 ed       	ldi	r24, 0xD0	; 208
    2c94:	97 e0       	ldi	r25, 0x07	; 7
    2c96:	fe 01       	movw	r30, r28
    2c98:	31 97       	sbiw	r30, 0x01	; 1
    2c9a:	f1 f7       	brne	.-4      	; 0x2c98 <wprowadz_numer+0x404>
    2c9c:	01 97       	sbiw	r24, 0x01	; 1
    2c9e:	d9 f7       	brne	.-10     	; 0x2c96 <wprowadz_numer+0x402>
    2ca0:	99 99       	sbic	0x13, 1	; 19
    2ca2:	be cf       	rjmp	.-132    	; 0x2c20 <wprowadz_numer+0x38c>
    2ca4:	82 e1       	ldi	r24, 0x12	; 18
    2ca6:	90 e0       	ldi	r25, 0x00	; 0
    2ca8:	0e 94 a7 05 	call	0xb4e	; 0xb4e <komunikat_glosowy>
    2cac:	80 91 21 02 	lds	r24, 0x0221
    2cb0:	90 91 22 02 	lds	r25, 0x0222
    2cb4:	80 93 2e 02 	sts	0x022E, r24
    2cb8:	90 93 2f 02 	sts	0x022F, r25
    2cbc:	80 5d       	subi	r24, 0xD0	; 208
    2cbe:	80 93 23 02 	sts	0x0223, r24
    2cc2:	80 93 27 02 	sts	0x0227, r24
    2cc6:	8f e0       	ldi	r24, 0x0F	; 15
    2cc8:	90 e0       	ldi	r25, 0x00	; 0
    2cca:	0e 94 a7 05 	call	0xb4e	; 0xb4e <komunikat_glosowy>
    2cce:	10 92 20 02 	sts	0x0220, r1
    2cd2:	0e c0       	rjmp	.+28     	; 0x2cf0 <wprowadz_numer+0x45c>
    2cd4:	f0 e0       	ldi	r31, 0x00	; 0
    2cd6:	ee 0f       	add	r30, r30
    2cd8:	ff 1f       	adc	r31, r31
    2cda:	e8 5d       	subi	r30, 0xD8	; 216
    2cdc:	fd 4f       	sbci	r31, 0xFD	; 253
    2cde:	80 81       	ld	r24, Z
    2ce0:	91 81       	ldd	r25, Z+1	; 0x01
    2ce2:	0e 94 a7 05 	call	0xb4e	; 0xb4e <komunikat_glosowy>
    2ce6:	80 91 20 02 	lds	r24, 0x0220
    2cea:	8f 5f       	subi	r24, 0xFF	; 255
    2cec:	80 93 20 02 	sts	0x0220, r24
    2cf0:	e0 91 20 02 	lds	r30, 0x0220
    2cf4:	e3 30       	cpi	r30, 0x03	; 3
    2cf6:	70 f3       	brcs	.-36     	; 0x2cd4 <wprowadz_numer+0x440>
    2cf8:	80 91 21 02 	lds	r24, 0x0221
    2cfc:	90 91 22 02 	lds	r25, 0x0222
    2d00:	0e 94 a7 05 	call	0xb4e	; 0xb4e <komunikat_glosowy>
    2d04:	84 e1       	ldi	r24, 0x14	; 20
    2d06:	90 e0       	ldi	r25, 0x00	; 0
    2d08:	0e 94 a7 05 	call	0xb4e	; 0xb4e <komunikat_glosowy>
    2d0c:	df 91       	pop	r29
    2d0e:	cf 91       	pop	r28
    2d10:	08 95       	ret

00002d12 <LCD_clear>:
    2d12:	1f 93       	push	r17
    2d14:	10 e0       	ldi	r17, 0x00	; 0
    2d16:	81 e0       	ldi	r24, 0x01	; 1
    2d18:	61 2f       	mov	r22, r17
    2d1a:	0e 94 8d 13 	call	0x271a	; 0x271a <lcd_locate>
    2d1e:	8e e0       	ldi	r24, 0x0E	; 14
    2d20:	92 e0       	ldi	r25, 0x02	; 2
    2d22:	0e 94 3b 13 	call	0x2676	; 0x2676 <lcd_str>
    2d26:	1e 30       	cpi	r17, 0x0E	; 14
    2d28:	20 f0       	brcs	.+8      	; 0x2d32 <LCD_clear+0x20>
    2d2a:	80 e0       	ldi	r24, 0x00	; 0
    2d2c:	61 2f       	mov	r22, r17
    2d2e:	0e 94 8d 13 	call	0x271a	; 0x271a <lcd_locate>
    2d32:	8e e0       	ldi	r24, 0x0E	; 14
    2d34:	92 e0       	ldi	r25, 0x02	; 2
    2d36:	0e 94 3b 13 	call	0x2676	; 0x2676 <lcd_str>
    2d3a:	1f 5f       	subi	r17, 0xFF	; 255
    2d3c:	10 31       	cpi	r17, 0x10	; 16
    2d3e:	59 f7       	brne	.-42     	; 0x2d16 <LCD_clear+0x4>
    2d40:	1f 91       	pop	r17
    2d42:	08 95       	ret

00002d44 <__vector_5>:
    2d44:	1f 92       	push	r1
    2d46:	0f 92       	push	r0
    2d48:	0f b6       	in	r0, 0x3f	; 63
    2d4a:	0f 92       	push	r0
    2d4c:	11 24       	eor	r1, r1
    2d4e:	2f 93       	push	r18
    2d50:	3f 93       	push	r19
    2d52:	4f 93       	push	r20
    2d54:	5f 93       	push	r21
    2d56:	6f 93       	push	r22
    2d58:	7f 93       	push	r23
    2d5a:	8f 93       	push	r24
    2d5c:	9f 93       	push	r25
    2d5e:	af 93       	push	r26
    2d60:	bf 93       	push	r27
    2d62:	ef 93       	push	r30
    2d64:	ff 93       	push	r31
    2d66:	80 91 33 02 	lds	r24, 0x0233
    2d6a:	8f 5f       	subi	r24, 0xFF	; 255
    2d6c:	80 93 33 02 	sts	0x0233, r24
    2d70:	8e 37       	cpi	r24, 0x7E	; 126
    2d72:	a0 f1       	brcs	.+104    	; 0x2ddc <__vector_5+0x98>
    2d74:	10 92 33 02 	sts	0x0233, r1
    2d78:	90 91 32 02 	lds	r25, 0x0232
    2d7c:	9f 5f       	subi	r25, 0xFF	; 255
    2d7e:	90 93 32 02 	sts	0x0232, r25
    2d82:	80 91 34 02 	lds	r24, 0x0234
    2d86:	82 30       	cpi	r24, 0x02	; 2
    2d88:	19 f4       	brne	.+6      	; 0x2d90 <__vector_5+0x4c>
    2d8a:	93 30       	cpi	r25, 0x03	; 3
    2d8c:	09 f4       	brne	.+2      	; 0x2d90 <__vector_5+0x4c>
    2d8e:	df 98       	cbi	0x1b, 7	; 27
    2d90:	80 91 34 02 	lds	r24, 0x0234
    2d94:	82 30       	cpi	r24, 0x02	; 2
    2d96:	e1 f4       	brne	.+56     	; 0x2dd0 <__vector_5+0x8c>
    2d98:	94 30       	cpi	r25, 0x04	; 4
    2d9a:	d1 f4       	brne	.+52     	; 0x2dd0 <__vector_5+0x8c>
    2d9c:	df 9a       	sbi	0x1b, 7	; 27
    2d9e:	81 e0       	ldi	r24, 0x01	; 1
    2da0:	60 e0       	ldi	r22, 0x00	; 0
    2da2:	0e 94 8d 13 	call	0x271a	; 0x271a <lcd_locate>
    2da6:	8e ee       	ldi	r24, 0xEE	; 238
    2da8:	91 e0       	ldi	r25, 0x01	; 1
    2daa:	0e 94 3b 13 	call	0x2676	; 0x2676 <lcd_str>
    2dae:	80 91 35 02 	lds	r24, 0x0235
    2db2:	88 23       	and	r24, r24
    2db4:	41 f4       	brne	.+16     	; 0x2dc6 <__vector_5+0x82>
    2db6:	81 e0       	ldi	r24, 0x01	; 1
    2db8:	6e e0       	ldi	r22, 0x0E	; 14
    2dba:	0e 94 8d 13 	call	0x271a	; 0x271a <lcd_locate>
    2dbe:	85 ec       	ldi	r24, 0xC5	; 197
    2dc0:	91 e0       	ldi	r25, 0x01	; 1
    2dc2:	0e 94 3b 13 	call	0x2676	; 0x2676 <lcd_str>
    2dc6:	81 e0       	ldi	r24, 0x01	; 1
    2dc8:	80 93 34 02 	sts	0x0234, r24
    2dcc:	10 92 35 02 	sts	0x0235, r1
    2dd0:	80 91 32 02 	lds	r24, 0x0232
    2dd4:	8a 30       	cpi	r24, 0x0A	; 10
    2dd6:	10 f0       	brcs	.+4      	; 0x2ddc <__vector_5+0x98>
    2dd8:	10 92 32 02 	sts	0x0232, r1
    2ddc:	83 e8       	ldi	r24, 0x83	; 131
    2dde:	84 bd       	out	0x24, r24	; 36
    2de0:	ff 91       	pop	r31
    2de2:	ef 91       	pop	r30
    2de4:	bf 91       	pop	r27
    2de6:	af 91       	pop	r26
    2de8:	9f 91       	pop	r25
    2dea:	8f 91       	pop	r24
    2dec:	7f 91       	pop	r23
    2dee:	6f 91       	pop	r22
    2df0:	5f 91       	pop	r21
    2df2:	4f 91       	pop	r20
    2df4:	3f 91       	pop	r19
    2df6:	2f 91       	pop	r18
    2df8:	0f 90       	pop	r0
    2dfa:	0f be       	out	0x3f, r0	; 63
    2dfc:	0f 90       	pop	r0
    2dfe:	1f 90       	pop	r1
    2e00:	18 95       	reti

00002e02 <main>:
    2e02:	6f 92       	push	r6
    2e04:	7f 92       	push	r7
    2e06:	8f 92       	push	r8
    2e08:	9f 92       	push	r9
    2e0a:	af 92       	push	r10
    2e0c:	bf 92       	push	r11
    2e0e:	cf 92       	push	r12
    2e10:	df 92       	push	r13
    2e12:	ef 92       	push	r14
    2e14:	ff 92       	push	r15
    2e16:	0f 93       	push	r16
    2e18:	1f 93       	push	r17
    2e1a:	df 93       	push	r29
    2e1c:	cf 93       	push	r28
    2e1e:	cd b7       	in	r28, 0x3d	; 61
    2e20:	de b7       	in	r29, 0x3e	; 62
    2e22:	27 97       	sbiw	r28, 0x07	; 7
    2e24:	0f b6       	in	r0, 0x3f	; 63
    2e26:	f8 94       	cli
    2e28:	de bf       	out	0x3e, r29	; 62
    2e2a:	0f be       	out	0x3f, r0	; 63
    2e2c:	cd bf       	out	0x3d, r28	; 61
    2e2e:	9f ef       	ldi	r25, 0xFF	; 255
    2e30:	9a bb       	out	0x1a, r25	; 26
    2e32:	80 e8       	ldi	r24, 0x80	; 128
    2e34:	8b bb       	out	0x1b, r24	; 27
    2e36:	80 ee       	ldi	r24, 0xE0	; 224
    2e38:	87 bb       	out	0x17, r24	; 23
    2e3a:	80 ef       	ldi	r24, 0xF0	; 240
    2e3c:	88 bb       	out	0x18, r24	; 24
    2e3e:	8c ef       	ldi	r24, 0xFC	; 252
    2e40:	84 bb       	out	0x14, r24	; 20
    2e42:	95 bb       	out	0x15, r25	; 21
    2e44:	80 e3       	ldi	r24, 0x30	; 48
    2e46:	81 bb       	out	0x11, r24	; 17
    2e48:	0e 94 82 00 	call	0x104	; 0x104 <PLAYER_init>
    2e4c:	60 e0       	ldi	r22, 0x00	; 0
    2e4e:	7b e4       	ldi	r23, 0x4B	; 75
    2e50:	80 e0       	ldi	r24, 0x00	; 0
    2e52:	90 e0       	ldi	r25, 0x00	; 0
    2e54:	0e 94 89 11 	call	0x2312	; 0x2312 <InitUSART>
    2e58:	0e 94 99 13 	call	0x2732	; 0x2732 <lcd_init>
    2e5c:	85 b5       	in	r24, 0x25	; 37
    2e5e:	8f 60       	ori	r24, 0x0F	; 15
    2e60:	85 bd       	out	0x25, r24	; 37
    2e62:	89 b7       	in	r24, 0x39	; 57
    2e64:	80 64       	ori	r24, 0x40	; 64
    2e66:	89 bf       	out	0x39, r24	; 57
    2e68:	89 ef       	ldi	r24, 0xF9	; 249
    2e6a:	84 bd       	out	0x24, r24	; 36
    2e6c:	78 94       	sei
    2e6e:	df 98       	cbi	0x1b, 7	; 27
    2e70:	0e 94 95 13 	call	0x272a	; 0x272a <lcd_cls>
    2e74:	0e 94 fd 11 	call	0x23fa	; 0x23fa <start>
    2e78:	8a e0       	ldi	r24, 0x0A	; 10
    2e7a:	90 e0       	ldi	r25, 0x00	; 0
    2e7c:	0e 94 a7 05 	call	0xb4e	; 0xb4e <komunikat_glosowy>
    2e80:	0e 94 95 13 	call	0x272a	; 0x272a <lcd_cls>
    2e84:	80 e0       	ldi	r24, 0x00	; 0
    2e86:	60 e0       	ldi	r22, 0x00	; 0
    2e88:	0e 94 8d 13 	call	0x271a	; 0x271a <lcd_locate>
    2e8c:	88 ec       	ldi	r24, 0xC8	; 200
    2e8e:	91 e0       	ldi	r25, 0x01	; 1
    2e90:	0e 94 3b 13 	call	0x2676	; 0x2676 <lcd_str>
    2e94:	8b e0       	ldi	r24, 0x0B	; 11
    2e96:	90 e0       	ldi	r25, 0x00	; 0
    2e98:	0e 94 a7 05 	call	0xb4e	; 0xb4e <komunikat_glosowy>
    2e9c:	0e 94 4a 14 	call	0x2894	; 0x2894 <wprowadz_numer>
    2ea0:	df 9a       	sbi	0x1b, 7	; 27
    2ea2:	fe 01       	movw	r30, r28
    2ea4:	33 96       	adiw	r30, 0x03	; 3
    2ea6:	85 e0       	ldi	r24, 0x05	; 5
    2ea8:	df 01       	movw	r26, r30
    2eaa:	1d 92       	st	X+, r1
    2eac:	8a 95       	dec	r24
    2eae:	e9 f7       	brne	.-6      	; 0x2eaa <main+0xa8>
    2eb0:	90 e0       	ldi	r25, 0x00	; 0
    2eb2:	9f 01       	movw	r18, r30
    2eb4:	0a c0       	rjmp	.+20     	; 0x2eca <main+0xc8>
    2eb6:	e9 2f       	mov	r30, r25
    2eb8:	f0 e0       	ldi	r31, 0x00	; 0
    2eba:	d9 01       	movw	r26, r18
    2ebc:	ae 0f       	add	r26, r30
    2ebe:	bf 1f       	adc	r27, r31
    2ec0:	ec 5d       	subi	r30, 0xDC	; 220
    2ec2:	fd 4f       	sbci	r31, 0xFD	; 253
    2ec4:	80 81       	ld	r24, Z
    2ec6:	8c 93       	st	X, r24
    2ec8:	9f 5f       	subi	r25, 0xFF	; 255
    2eca:	94 30       	cpi	r25, 0x04	; 4
    2ecc:	a0 f3       	brcs	.-24     	; 0x2eb6 <main+0xb4>
    2ece:	90 93 20 02 	sts	0x0220, r25
    2ed2:	80 e0       	ldi	r24, 0x00	; 0
    2ed4:	6a e0       	ldi	r22, 0x0A	; 10
    2ed6:	0e 94 8d 13 	call	0x271a	; 0x271a <lcd_locate>
    2eda:	84 e2       	ldi	r24, 0x24	; 36
    2edc:	92 e0       	ldi	r25, 0x02	; 2
    2ede:	0e 94 3b 13 	call	0x2676	; 0x2676 <lcd_str>
    2ee2:	8d e0       	ldi	r24, 0x0D	; 13
    2ee4:	0a c0       	rjmp	.+20     	; 0x2efa <main+0xf8>
    2ee6:	80 e0       	ldi	r24, 0x00	; 0
    2ee8:	0e 94 8d 13 	call	0x271a	; 0x271a <lcd_locate>
    2eec:	8e e0       	ldi	r24, 0x0E	; 14
    2eee:	92 e0       	ldi	r25, 0x02	; 2
    2ef0:	0e 94 3b 13 	call	0x2676	; 0x2676 <lcd_str>
    2ef4:	80 91 20 02 	lds	r24, 0x0220
    2ef8:	8f 5f       	subi	r24, 0xFF	; 255
    2efa:	80 93 20 02 	sts	0x0220, r24
    2efe:	60 91 20 02 	lds	r22, 0x0220
    2f02:	60 31       	cpi	r22, 0x10	; 16
    2f04:	80 f3       	brcs	.-32     	; 0x2ee6 <main+0xe4>
    2f06:	4e 01       	movw	r8, r28
    2f08:	08 94       	sec
    2f0a:	81 1c       	adc	r8, r1
    2f0c:	91 1c       	adc	r9, r1
    2f0e:	73 e0       	ldi	r23, 0x03	; 3
    2f10:	a7 2e       	mov	r10, r23
    2f12:	b1 2c       	mov	r11, r1
    2f14:	ac 0e       	add	r10, r28
    2f16:	bd 1e       	adc	r11, r29
    2f18:	77 24       	eor	r7, r7
    2f1a:	73 94       	inc	r7
    2f1c:	62 e0       	ldi	r22, 0x02	; 2
    2f1e:	66 2e       	mov	r6, r22
    2f20:	50 e4       	ldi	r21, 0x40	; 64
    2f22:	c5 2e       	mov	r12, r21
    2f24:	5c e9       	ldi	r21, 0x9C	; 156
    2f26:	d5 2e       	mov	r13, r21
    2f28:	40 e9       	ldi	r20, 0x90	; 144
    2f2a:	e4 2e       	mov	r14, r20
    2f2c:	41 e0       	ldi	r20, 0x01	; 1
    2f2e:	f4 2e       	mov	r15, r20
    2f30:	0e 94 89 16 	call	0x2d12	; 0x2d12 <LCD_clear>
    2f34:	80 91 34 02 	lds	r24, 0x0234
    2f38:	82 30       	cpi	r24, 0x02	; 2
    2f3a:	29 f4       	brne	.+10     	; 0x2f46 <main+0x144>
    2f3c:	10 92 32 02 	sts	0x0232, r1
    2f40:	88 e5       	ldi	r24, 0x58	; 88
    2f42:	0e 94 b0 11 	call	0x2360	; 0x2360 <TransmitUSART>
    2f46:	81 e0       	ldi	r24, 0x01	; 1
    2f48:	90 e0       	ldi	r25, 0x00	; 0
    2f4a:	61 e0       	ldi	r22, 0x01	; 1
    2f4c:	70 e0       	ldi	r23, 0x00	; 0
    2f4e:	0e 94 93 18 	call	0x3126	; 0x3126 <calloc>
    2f52:	89 83       	std	Y+1, r24	; 0x01
    2f54:	9a 83       	std	Y+2, r25	; 0x02
    2f56:	c4 01       	movw	r24, r8
    2f58:	0e 94 c5 11 	call	0x238a	; 0x238a <BT_receive>
    2f5c:	09 81       	ldd	r16, Y+1	; 0x01
    2f5e:	1a 81       	ldd	r17, Y+2	; 0x02
    2f60:	c8 01       	movw	r24, r16
    2f62:	63 ee       	ldi	r22, 0xE3	; 227
    2f64:	71 e0       	ldi	r23, 0x01	; 1
    2f66:	0e 94 92 1a 	call	0x3524	; 0x3524 <strstr>
    2f6a:	00 97       	sbiw	r24, 0x00	; 0
    2f6c:	59 f0       	breq	.+22     	; 0x2f84 <main+0x182>
    2f6e:	81 e0       	ldi	r24, 0x01	; 1
    2f70:	60 e0       	ldi	r22, 0x00	; 0
    2f72:	0e 94 8d 13 	call	0x271a	; 0x271a <lcd_locate>
    2f76:	8e ef       	ldi	r24, 0xFE	; 254
    2f78:	91 e0       	ldi	r25, 0x01	; 1
    2f7a:	0e 94 3b 13 	call	0x2676	; 0x2676 <lcd_str>
    2f7e:	60 92 34 02 	sts	0x0234, r6
    2f82:	75 c0       	rjmp	.+234    	; 0x306e <main+0x26c>
    2f84:	80 91 34 02 	lds	r24, 0x0234
    2f88:	82 30       	cpi	r24, 0x02	; 2
    2f8a:	09 f0       	breq	.+2      	; 0x2f8e <main+0x18c>
    2f8c:	70 c0       	rjmp	.+224    	; 0x306e <main+0x26c>
    2f8e:	c8 01       	movw	r24, r16
    2f90:	b5 01       	movw	r22, r10
    2f92:	0e 94 92 1a 	call	0x3524	; 0x3524 <strstr>
    2f96:	00 97       	sbiw	r24, 0x00	; 0
    2f98:	09 f4       	brne	.+2      	; 0x2f9c <main+0x19a>
    2f9a:	4d c0       	rjmp	.+154    	; 0x3036 <main+0x234>
    2f9c:	81 e0       	ldi	r24, 0x01	; 1
    2f9e:	60 e0       	ldi	r22, 0x00	; 0
    2fa0:	0e 94 8d 13 	call	0x271a	; 0x271a <lcd_locate>
    2fa4:	8e ee       	ldi	r24, 0xEE	; 238
    2fa6:	91 e0       	ldi	r25, 0x01	; 1
    2fa8:	0e 94 3b 13 	call	0x2676	; 0x2676 <lcd_str>
    2fac:	81 e0       	ldi	r24, 0x01	; 1
    2fae:	6e e0       	ldi	r22, 0x0E	; 14
    2fb0:	0e 94 8d 13 	call	0x271a	; 0x271a <lcd_locate>
    2fb4:	82 ed       	ldi	r24, 0xD2	; 210
    2fb6:	91 e0       	ldi	r25, 0x01	; 1
    2fb8:	0e 94 3b 13 	call	0x2676	; 0x2676 <lcd_str>
    2fbc:	81 e0       	ldi	r24, 0x01	; 1
    2fbe:	80 93 35 02 	sts	0x0235, r24
    2fc2:	80 e1       	ldi	r24, 0x10	; 16
    2fc4:	90 e0       	ldi	r25, 0x00	; 0
    2fc6:	0e 94 a7 05 	call	0xb4e	; 0xb4e <komunikat_glosowy>
    2fca:	10 92 20 02 	sts	0x0220, r1
    2fce:	0e c0       	rjmp	.+28     	; 0x2fec <main+0x1ea>
    2fd0:	f0 e0       	ldi	r31, 0x00	; 0
    2fd2:	ee 0f       	add	r30, r30
    2fd4:	ff 1f       	adc	r31, r31
    2fd6:	e8 5d       	subi	r30, 0xD8	; 216
    2fd8:	fd 4f       	sbci	r31, 0xFD	; 253
    2fda:	80 81       	ld	r24, Z
    2fdc:	91 81       	ldd	r25, Z+1	; 0x01
    2fde:	0e 94 a7 05 	call	0xb4e	; 0xb4e <komunikat_glosowy>
    2fe2:	80 91 20 02 	lds	r24, 0x0220
    2fe6:	8f 5f       	subi	r24, 0xFF	; 255
    2fe8:	80 93 20 02 	sts	0x0220, r24
    2fec:	e0 91 20 02 	lds	r30, 0x0220
    2ff0:	e3 30       	cpi	r30, 0x03	; 3
    2ff2:	70 f3       	brcs	.-36     	; 0x2fd0 <main+0x1ce>
    2ff4:	80 91 21 02 	lds	r24, 0x0221
    2ff8:	90 91 22 02 	lds	r25, 0x0222
    2ffc:	0e 94 a7 05 	call	0xb4e	; 0xb4e <komunikat_glosowy>
    3000:	81 e1       	ldi	r24, 0x11	; 17
    3002:	90 e0       	ldi	r25, 0x00	; 0
    3004:	0e 94 a7 05 	call	0xb4e	; 0xb4e <komunikat_glosowy>
    3008:	80 e0       	ldi	r24, 0x00	; 0
    300a:	90 e0       	ldi	r25, 0x00	; 0
    300c:	27 96       	adiw	r28, 0x07	; 7
    300e:	0f b6       	in	r0, 0x3f	; 63
    3010:	f8 94       	cli
    3012:	de bf       	out	0x3e, r29	; 62
    3014:	0f be       	out	0x3f, r0	; 63
    3016:	cd bf       	out	0x3d, r28	; 61
    3018:	cf 91       	pop	r28
    301a:	df 91       	pop	r29
    301c:	1f 91       	pop	r17
    301e:	0f 91       	pop	r16
    3020:	ff 90       	pop	r15
    3022:	ef 90       	pop	r14
    3024:	df 90       	pop	r13
    3026:	cf 90       	pop	r12
    3028:	bf 90       	pop	r11
    302a:	af 90       	pop	r10
    302c:	9f 90       	pop	r9
    302e:	8f 90       	pop	r8
    3030:	7f 90       	pop	r7
    3032:	6f 90       	pop	r6
    3034:	08 95       	ret
    3036:	70 92 35 02 	sts	0x0235, r7
    303a:	81 e0       	ldi	r24, 0x01	; 1
    303c:	60 e0       	ldi	r22, 0x00	; 0
    303e:	0e 94 8d 13 	call	0x271a	; 0x271a <lcd_locate>
    3042:	8e ee       	ldi	r24, 0xEE	; 238
    3044:	91 e0       	ldi	r25, 0x01	; 1
    3046:	0e 94 3b 13 	call	0x2676	; 0x2676 <lcd_str>
    304a:	81 e0       	ldi	r24, 0x01	; 1
    304c:	6e e0       	ldi	r22, 0x0E	; 14
    304e:	0e 94 8d 13 	call	0x271a	; 0x271a <lcd_locate>
    3052:	85 ed       	ldi	r24, 0xD5	; 213
    3054:	91 e0       	ldi	r25, 0x01	; 1
    3056:	0e 94 3b 13 	call	0x2676	; 0x2676 <lcd_str>
    305a:	10 92 34 02 	sts	0x0234, r1
    305e:	df 98       	cbi	0x1b, 7	; 27
    3060:	85 e1       	ldi	r24, 0x15	; 21
    3062:	90 e0       	ldi	r25, 0x00	; 0
    3064:	0e 94 a7 05 	call	0xb4e	; 0xb4e <komunikat_glosowy>
    3068:	df 9a       	sbi	0x1b, 7	; 27
    306a:	70 92 34 02 	sts	0x0234, r7
    306e:	c6 01       	movw	r24, r12
    3070:	01 97       	sbiw	r24, 0x01	; 1
    3072:	f1 f7       	brne	.-4      	; 0x3070 <main+0x26e>
    3074:	89 81       	ldd	r24, Y+1	; 0x01
    3076:	9a 81       	ldd	r25, Y+2	; 0x02
    3078:	0e 94 5c 19 	call	0x32b8	; 0x32b8 <free>
    307c:	88 e8       	ldi	r24, 0x88	; 136
    307e:	93 e1       	ldi	r25, 0x13	; 19
    3080:	f7 01       	movw	r30, r14
    3082:	31 97       	sbiw	r30, 0x01	; 1
    3084:	f1 f7       	brne	.-4      	; 0x3082 <main+0x280>
    3086:	01 97       	sbiw	r24, 0x01	; 1
    3088:	d9 f7       	brne	.-10     	; 0x3080 <main+0x27e>
    308a:	52 cf       	rjmp	.-348    	; 0x2f30 <main+0x12e>

0000308c <__mulsi3>:
    308c:	62 9f       	mul	r22, r18
    308e:	d0 01       	movw	r26, r0
    3090:	73 9f       	mul	r23, r19
    3092:	f0 01       	movw	r30, r0
    3094:	82 9f       	mul	r24, r18
    3096:	e0 0d       	add	r30, r0
    3098:	f1 1d       	adc	r31, r1
    309a:	64 9f       	mul	r22, r20
    309c:	e0 0d       	add	r30, r0
    309e:	f1 1d       	adc	r31, r1
    30a0:	92 9f       	mul	r25, r18
    30a2:	f0 0d       	add	r31, r0
    30a4:	83 9f       	mul	r24, r19
    30a6:	f0 0d       	add	r31, r0
    30a8:	74 9f       	mul	r23, r20
    30aa:	f0 0d       	add	r31, r0
    30ac:	65 9f       	mul	r22, r21
    30ae:	f0 0d       	add	r31, r0
    30b0:	99 27       	eor	r25, r25
    30b2:	72 9f       	mul	r23, r18
    30b4:	b0 0d       	add	r27, r0
    30b6:	e1 1d       	adc	r30, r1
    30b8:	f9 1f       	adc	r31, r25
    30ba:	63 9f       	mul	r22, r19
    30bc:	b0 0d       	add	r27, r0
    30be:	e1 1d       	adc	r30, r1
    30c0:	f9 1f       	adc	r31, r25
    30c2:	bd 01       	movw	r22, r26
    30c4:	cf 01       	movw	r24, r30
    30c6:	11 24       	eor	r1, r1
    30c8:	08 95       	ret

000030ca <__udivmodqi4>:
    30ca:	99 1b       	sub	r25, r25
    30cc:	79 e0       	ldi	r23, 0x09	; 9
    30ce:	04 c0       	rjmp	.+8      	; 0x30d8 <__udivmodqi4_ep>

000030d0 <__udivmodqi4_loop>:
    30d0:	99 1f       	adc	r25, r25
    30d2:	96 17       	cp	r25, r22
    30d4:	08 f0       	brcs	.+2      	; 0x30d8 <__udivmodqi4_ep>
    30d6:	96 1b       	sub	r25, r22

000030d8 <__udivmodqi4_ep>:
    30d8:	88 1f       	adc	r24, r24
    30da:	7a 95       	dec	r23
    30dc:	c9 f7       	brne	.-14     	; 0x30d0 <__udivmodqi4_loop>
    30de:	80 95       	com	r24
    30e0:	08 95       	ret

000030e2 <__udivmodsi4>:
    30e2:	a1 e2       	ldi	r26, 0x21	; 33
    30e4:	1a 2e       	mov	r1, r26
    30e6:	aa 1b       	sub	r26, r26
    30e8:	bb 1b       	sub	r27, r27
    30ea:	fd 01       	movw	r30, r26
    30ec:	0d c0       	rjmp	.+26     	; 0x3108 <__udivmodsi4_ep>

000030ee <__udivmodsi4_loop>:
    30ee:	aa 1f       	adc	r26, r26
    30f0:	bb 1f       	adc	r27, r27
    30f2:	ee 1f       	adc	r30, r30
    30f4:	ff 1f       	adc	r31, r31
    30f6:	a2 17       	cp	r26, r18
    30f8:	b3 07       	cpc	r27, r19
    30fa:	e4 07       	cpc	r30, r20
    30fc:	f5 07       	cpc	r31, r21
    30fe:	20 f0       	brcs	.+8      	; 0x3108 <__udivmodsi4_ep>
    3100:	a2 1b       	sub	r26, r18
    3102:	b3 0b       	sbc	r27, r19
    3104:	e4 0b       	sbc	r30, r20
    3106:	f5 0b       	sbc	r31, r21

00003108 <__udivmodsi4_ep>:
    3108:	66 1f       	adc	r22, r22
    310a:	77 1f       	adc	r23, r23
    310c:	88 1f       	adc	r24, r24
    310e:	99 1f       	adc	r25, r25
    3110:	1a 94       	dec	r1
    3112:	69 f7       	brne	.-38     	; 0x30ee <__udivmodsi4_loop>
    3114:	60 95       	com	r22
    3116:	70 95       	com	r23
    3118:	80 95       	com	r24
    311a:	90 95       	com	r25
    311c:	9b 01       	movw	r18, r22
    311e:	ac 01       	movw	r20, r24
    3120:	bd 01       	movw	r22, r26
    3122:	cf 01       	movw	r24, r30
    3124:	08 95       	ret

00003126 <calloc>:
    3126:	0f 93       	push	r16
    3128:	1f 93       	push	r17
    312a:	cf 93       	push	r28
    312c:	df 93       	push	r29
    312e:	68 9f       	mul	r22, r24
    3130:	80 01       	movw	r16, r0
    3132:	69 9f       	mul	r22, r25
    3134:	10 0d       	add	r17, r0
    3136:	78 9f       	mul	r23, r24
    3138:	10 0d       	add	r17, r0
    313a:	11 24       	eor	r1, r1
    313c:	c8 01       	movw	r24, r16
    313e:	0e 94 af 18 	call	0x315e	; 0x315e <malloc>
    3142:	ec 01       	movw	r28, r24
    3144:	00 97       	sbiw	r24, 0x00	; 0
    3146:	29 f0       	breq	.+10     	; 0x3152 <calloc+0x2c>
    3148:	60 e0       	ldi	r22, 0x00	; 0
    314a:	70 e0       	ldi	r23, 0x00	; 0
    314c:	a8 01       	movw	r20, r16
    314e:	0e 94 8b 1a 	call	0x3516	; 0x3516 <memset>
    3152:	ce 01       	movw	r24, r28
    3154:	df 91       	pop	r29
    3156:	cf 91       	pop	r28
    3158:	1f 91       	pop	r17
    315a:	0f 91       	pop	r16
    315c:	08 95       	ret

0000315e <malloc>:
    315e:	cf 93       	push	r28
    3160:	df 93       	push	r29
    3162:	bc 01       	movw	r22, r24
    3164:	82 30       	cpi	r24, 0x02	; 2
    3166:	91 05       	cpc	r25, r1
    3168:	10 f4       	brcc	.+4      	; 0x316e <malloc+0x10>
    316a:	62 e0       	ldi	r22, 0x02	; 2
    316c:	70 e0       	ldi	r23, 0x00	; 0
    316e:	a0 91 95 06 	lds	r26, 0x0695
    3172:	b0 91 96 06 	lds	r27, 0x0696
    3176:	ed 01       	movw	r28, r26
    3178:	e0 e0       	ldi	r30, 0x00	; 0
    317a:	f0 e0       	ldi	r31, 0x00	; 0
    317c:	40 e0       	ldi	r20, 0x00	; 0
    317e:	50 e0       	ldi	r21, 0x00	; 0
    3180:	21 c0       	rjmp	.+66     	; 0x31c4 <malloc+0x66>
    3182:	88 81       	ld	r24, Y
    3184:	99 81       	ldd	r25, Y+1	; 0x01
    3186:	86 17       	cp	r24, r22
    3188:	97 07       	cpc	r25, r23
    318a:	69 f4       	brne	.+26     	; 0x31a6 <malloc+0x48>
    318c:	8a 81       	ldd	r24, Y+2	; 0x02
    318e:	9b 81       	ldd	r25, Y+3	; 0x03
    3190:	30 97       	sbiw	r30, 0x00	; 0
    3192:	19 f0       	breq	.+6      	; 0x319a <malloc+0x3c>
    3194:	93 83       	std	Z+3, r25	; 0x03
    3196:	82 83       	std	Z+2, r24	; 0x02
    3198:	04 c0       	rjmp	.+8      	; 0x31a2 <malloc+0x44>
    319a:	90 93 96 06 	sts	0x0696, r25
    319e:	80 93 95 06 	sts	0x0695, r24
    31a2:	fe 01       	movw	r30, r28
    31a4:	34 c0       	rjmp	.+104    	; 0x320e <malloc+0xb0>
    31a6:	68 17       	cp	r22, r24
    31a8:	79 07       	cpc	r23, r25
    31aa:	38 f4       	brcc	.+14     	; 0x31ba <malloc+0x5c>
    31ac:	41 15       	cp	r20, r1
    31ae:	51 05       	cpc	r21, r1
    31b0:	19 f0       	breq	.+6      	; 0x31b8 <malloc+0x5a>
    31b2:	84 17       	cp	r24, r20
    31b4:	95 07       	cpc	r25, r21
    31b6:	08 f4       	brcc	.+2      	; 0x31ba <malloc+0x5c>
    31b8:	ac 01       	movw	r20, r24
    31ba:	fe 01       	movw	r30, r28
    31bc:	8a 81       	ldd	r24, Y+2	; 0x02
    31be:	9b 81       	ldd	r25, Y+3	; 0x03
    31c0:	9c 01       	movw	r18, r24
    31c2:	e9 01       	movw	r28, r18
    31c4:	20 97       	sbiw	r28, 0x00	; 0
    31c6:	e9 f6       	brne	.-70     	; 0x3182 <malloc+0x24>
    31c8:	41 15       	cp	r20, r1
    31ca:	51 05       	cpc	r21, r1
    31cc:	a9 f1       	breq	.+106    	; 0x3238 <malloc+0xda>
    31ce:	ca 01       	movw	r24, r20
    31d0:	86 1b       	sub	r24, r22
    31d2:	97 0b       	sbc	r25, r23
    31d4:	04 97       	sbiw	r24, 0x04	; 4
    31d6:	08 f4       	brcc	.+2      	; 0x31da <malloc+0x7c>
    31d8:	ba 01       	movw	r22, r20
    31da:	e0 e0       	ldi	r30, 0x00	; 0
    31dc:	f0 e0       	ldi	r31, 0x00	; 0
    31de:	2a c0       	rjmp	.+84     	; 0x3234 <malloc+0xd6>
    31e0:	8d 91       	ld	r24, X+
    31e2:	9c 91       	ld	r25, X
    31e4:	11 97       	sbiw	r26, 0x01	; 1
    31e6:	84 17       	cp	r24, r20
    31e8:	95 07       	cpc	r25, r21
    31ea:	f9 f4       	brne	.+62     	; 0x322a <malloc+0xcc>
    31ec:	64 17       	cp	r22, r20
    31ee:	75 07       	cpc	r23, r21
    31f0:	81 f4       	brne	.+32     	; 0x3212 <malloc+0xb4>
    31f2:	12 96       	adiw	r26, 0x02	; 2
    31f4:	8d 91       	ld	r24, X+
    31f6:	9c 91       	ld	r25, X
    31f8:	13 97       	sbiw	r26, 0x03	; 3
    31fa:	30 97       	sbiw	r30, 0x00	; 0
    31fc:	19 f0       	breq	.+6      	; 0x3204 <malloc+0xa6>
    31fe:	93 83       	std	Z+3, r25	; 0x03
    3200:	82 83       	std	Z+2, r24	; 0x02
    3202:	04 c0       	rjmp	.+8      	; 0x320c <malloc+0xae>
    3204:	90 93 96 06 	sts	0x0696, r25
    3208:	80 93 95 06 	sts	0x0695, r24
    320c:	fd 01       	movw	r30, r26
    320e:	32 96       	adiw	r30, 0x02	; 2
    3210:	4f c0       	rjmp	.+158    	; 0x32b0 <malloc+0x152>
    3212:	ca 01       	movw	r24, r20
    3214:	86 1b       	sub	r24, r22
    3216:	97 0b       	sbc	r25, r23
    3218:	fd 01       	movw	r30, r26
    321a:	e8 0f       	add	r30, r24
    321c:	f9 1f       	adc	r31, r25
    321e:	61 93       	st	Z+, r22
    3220:	71 93       	st	Z+, r23
    3222:	02 97       	sbiw	r24, 0x02	; 2
    3224:	8d 93       	st	X+, r24
    3226:	9c 93       	st	X, r25
    3228:	43 c0       	rjmp	.+134    	; 0x32b0 <malloc+0x152>
    322a:	fd 01       	movw	r30, r26
    322c:	82 81       	ldd	r24, Z+2	; 0x02
    322e:	93 81       	ldd	r25, Z+3	; 0x03
    3230:	9c 01       	movw	r18, r24
    3232:	d9 01       	movw	r26, r18
    3234:	10 97       	sbiw	r26, 0x00	; 0
    3236:	a1 f6       	brne	.-88     	; 0x31e0 <malloc+0x82>
    3238:	80 91 93 06 	lds	r24, 0x0693
    323c:	90 91 94 06 	lds	r25, 0x0694
    3240:	89 2b       	or	r24, r25
    3242:	41 f4       	brne	.+16     	; 0x3254 <malloc+0xf6>
    3244:	80 91 11 02 	lds	r24, 0x0211
    3248:	90 91 12 02 	lds	r25, 0x0212
    324c:	90 93 94 06 	sts	0x0694, r25
    3250:	80 93 93 06 	sts	0x0693, r24
    3254:	40 91 13 02 	lds	r20, 0x0213
    3258:	50 91 14 02 	lds	r21, 0x0214
    325c:	41 15       	cp	r20, r1
    325e:	51 05       	cpc	r21, r1
    3260:	41 f4       	brne	.+16     	; 0x3272 <malloc+0x114>
    3262:	4d b7       	in	r20, 0x3d	; 61
    3264:	5e b7       	in	r21, 0x3e	; 62
    3266:	80 91 0f 02 	lds	r24, 0x020F
    326a:	90 91 10 02 	lds	r25, 0x0210
    326e:	48 1b       	sub	r20, r24
    3270:	59 0b       	sbc	r21, r25
    3272:	20 91 93 06 	lds	r18, 0x0693
    3276:	30 91 94 06 	lds	r19, 0x0694
    327a:	24 17       	cp	r18, r20
    327c:	35 07       	cpc	r19, r21
    327e:	b0 f4       	brcc	.+44     	; 0x32ac <malloc+0x14e>
    3280:	ca 01       	movw	r24, r20
    3282:	82 1b       	sub	r24, r18
    3284:	93 0b       	sbc	r25, r19
    3286:	86 17       	cp	r24, r22
    3288:	97 07       	cpc	r25, r23
    328a:	80 f0       	brcs	.+32     	; 0x32ac <malloc+0x14e>
    328c:	ab 01       	movw	r20, r22
    328e:	4e 5f       	subi	r20, 0xFE	; 254
    3290:	5f 4f       	sbci	r21, 0xFF	; 255
    3292:	84 17       	cp	r24, r20
    3294:	95 07       	cpc	r25, r21
    3296:	50 f0       	brcs	.+20     	; 0x32ac <malloc+0x14e>
    3298:	42 0f       	add	r20, r18
    329a:	53 1f       	adc	r21, r19
    329c:	50 93 94 06 	sts	0x0694, r21
    32a0:	40 93 93 06 	sts	0x0693, r20
    32a4:	f9 01       	movw	r30, r18
    32a6:	61 93       	st	Z+, r22
    32a8:	71 93       	st	Z+, r23
    32aa:	02 c0       	rjmp	.+4      	; 0x32b0 <malloc+0x152>
    32ac:	e0 e0       	ldi	r30, 0x00	; 0
    32ae:	f0 e0       	ldi	r31, 0x00	; 0
    32b0:	cf 01       	movw	r24, r30
    32b2:	df 91       	pop	r29
    32b4:	cf 91       	pop	r28
    32b6:	08 95       	ret

000032b8 <free>:
    32b8:	cf 93       	push	r28
    32ba:	df 93       	push	r29
    32bc:	00 97       	sbiw	r24, 0x00	; 0
    32be:	09 f4       	brne	.+2      	; 0x32c2 <free+0xa>
    32c0:	50 c0       	rjmp	.+160    	; 0x3362 <free+0xaa>
    32c2:	ec 01       	movw	r28, r24
    32c4:	22 97       	sbiw	r28, 0x02	; 2
    32c6:	1b 82       	std	Y+3, r1	; 0x03
    32c8:	1a 82       	std	Y+2, r1	; 0x02
    32ca:	a0 91 95 06 	lds	r26, 0x0695
    32ce:	b0 91 96 06 	lds	r27, 0x0696
    32d2:	10 97       	sbiw	r26, 0x00	; 0
    32d4:	09 f1       	breq	.+66     	; 0x3318 <free+0x60>
    32d6:	40 e0       	ldi	r20, 0x00	; 0
    32d8:	50 e0       	ldi	r21, 0x00	; 0
    32da:	ac 17       	cp	r26, r28
    32dc:	bd 07       	cpc	r27, r29
    32de:	08 f1       	brcs	.+66     	; 0x3322 <free+0x6a>
    32e0:	bb 83       	std	Y+3, r27	; 0x03
    32e2:	aa 83       	std	Y+2, r26	; 0x02
    32e4:	fe 01       	movw	r30, r28
    32e6:	21 91       	ld	r18, Z+
    32e8:	31 91       	ld	r19, Z+
    32ea:	e2 0f       	add	r30, r18
    32ec:	f3 1f       	adc	r31, r19
    32ee:	ae 17       	cp	r26, r30
    32f0:	bf 07       	cpc	r27, r31
    32f2:	79 f4       	brne	.+30     	; 0x3312 <free+0x5a>
    32f4:	8d 91       	ld	r24, X+
    32f6:	9c 91       	ld	r25, X
    32f8:	11 97       	sbiw	r26, 0x01	; 1
    32fa:	28 0f       	add	r18, r24
    32fc:	39 1f       	adc	r19, r25
    32fe:	2e 5f       	subi	r18, 0xFE	; 254
    3300:	3f 4f       	sbci	r19, 0xFF	; 255
    3302:	39 83       	std	Y+1, r19	; 0x01
    3304:	28 83       	st	Y, r18
    3306:	12 96       	adiw	r26, 0x02	; 2
    3308:	8d 91       	ld	r24, X+
    330a:	9c 91       	ld	r25, X
    330c:	13 97       	sbiw	r26, 0x03	; 3
    330e:	9b 83       	std	Y+3, r25	; 0x03
    3310:	8a 83       	std	Y+2, r24	; 0x02
    3312:	41 15       	cp	r20, r1
    3314:	51 05       	cpc	r21, r1
    3316:	71 f4       	brne	.+28     	; 0x3334 <free+0x7c>
    3318:	d0 93 96 06 	sts	0x0696, r29
    331c:	c0 93 95 06 	sts	0x0695, r28
    3320:	20 c0       	rjmp	.+64     	; 0x3362 <free+0xaa>
    3322:	12 96       	adiw	r26, 0x02	; 2
    3324:	8d 91       	ld	r24, X+
    3326:	9c 91       	ld	r25, X
    3328:	13 97       	sbiw	r26, 0x03	; 3
    332a:	ad 01       	movw	r20, r26
    332c:	00 97       	sbiw	r24, 0x00	; 0
    332e:	11 f0       	breq	.+4      	; 0x3334 <free+0x7c>
    3330:	dc 01       	movw	r26, r24
    3332:	d3 cf       	rjmp	.-90     	; 0x32da <free+0x22>
    3334:	fa 01       	movw	r30, r20
    3336:	d3 83       	std	Z+3, r29	; 0x03
    3338:	c2 83       	std	Z+2, r28	; 0x02
    333a:	21 91       	ld	r18, Z+
    333c:	31 91       	ld	r19, Z+
    333e:	e2 0f       	add	r30, r18
    3340:	f3 1f       	adc	r31, r19
    3342:	ce 17       	cp	r28, r30
    3344:	df 07       	cpc	r29, r31
    3346:	69 f4       	brne	.+26     	; 0x3362 <free+0xaa>
    3348:	88 81       	ld	r24, Y
    334a:	99 81       	ldd	r25, Y+1	; 0x01
    334c:	28 0f       	add	r18, r24
    334e:	39 1f       	adc	r19, r25
    3350:	2e 5f       	subi	r18, 0xFE	; 254
    3352:	3f 4f       	sbci	r19, 0xFF	; 255
    3354:	fa 01       	movw	r30, r20
    3356:	31 83       	std	Z+1, r19	; 0x01
    3358:	20 83       	st	Z, r18
    335a:	8a 81       	ldd	r24, Y+2	; 0x02
    335c:	9b 81       	ldd	r25, Y+3	; 0x03
    335e:	93 83       	std	Z+3, r25	; 0x03
    3360:	82 83       	std	Z+2, r24	; 0x02
    3362:	df 91       	pop	r29
    3364:	cf 91       	pop	r28
    3366:	08 95       	ret

00003368 <realloc>:
    3368:	a0 e0       	ldi	r26, 0x00	; 0
    336a:	b0 e0       	ldi	r27, 0x00	; 0
    336c:	ea eb       	ldi	r30, 0xBA	; 186
    336e:	f9 e1       	ldi	r31, 0x19	; 25
    3370:	0c 94 33 1b 	jmp	0x3666	; 0x3666 <__prologue_saves__+0xc>
    3374:	8c 01       	movw	r16, r24
    3376:	00 97       	sbiw	r24, 0x00	; 0
    3378:	29 f4       	brne	.+10     	; 0x3384 <realloc+0x1c>
    337a:	cb 01       	movw	r24, r22
    337c:	0e 94 af 18 	call	0x315e	; 0x315e <malloc>
    3380:	8c 01       	movw	r16, r24
    3382:	ba c0       	rjmp	.+372    	; 0x34f8 <realloc+0x190>
    3384:	9e ef       	ldi	r25, 0xFE	; 254
    3386:	e9 2e       	mov	r14, r25
    3388:	9f ef       	ldi	r25, 0xFF	; 255
    338a:	f9 2e       	mov	r15, r25
    338c:	e0 0e       	add	r14, r16
    338e:	f1 1e       	adc	r15, r17
    3390:	58 01       	movw	r10, r16
    3392:	a6 0e       	add	r10, r22
    3394:	b7 1e       	adc	r11, r23
    3396:	ae 14       	cp	r10, r14
    3398:	bf 04       	cpc	r11, r15
    339a:	08 f4       	brcc	.+2      	; 0x339e <realloc+0x36>
    339c:	ab c0       	rjmp	.+342    	; 0x34f4 <realloc+0x18c>
    339e:	8e ef       	ldi	r24, 0xFE	; 254
    33a0:	88 2e       	mov	r8, r24
    33a2:	8f ef       	ldi	r24, 0xFF	; 255
    33a4:	98 2e       	mov	r9, r24
    33a6:	8a 0c       	add	r8, r10
    33a8:	9b 1c       	adc	r9, r11
    33aa:	e7 01       	movw	r28, r14
    33ac:	48 81       	ld	r20, Y
    33ae:	59 81       	ldd	r21, Y+1	; 0x01
    33b0:	46 17       	cp	r20, r22
    33b2:	57 07       	cpc	r21, r23
    33b4:	b8 f0       	brcs	.+46     	; 0x33e4 <realloc+0x7c>
    33b6:	45 30       	cpi	r20, 0x05	; 5
    33b8:	51 05       	cpc	r21, r1
    33ba:	08 f4       	brcc	.+2      	; 0x33be <realloc+0x56>
    33bc:	9d c0       	rjmp	.+314    	; 0x34f8 <realloc+0x190>
    33be:	ca 01       	movw	r24, r20
    33c0:	04 97       	sbiw	r24, 0x04	; 4
    33c2:	86 17       	cp	r24, r22
    33c4:	97 07       	cpc	r25, r23
    33c6:	08 f4       	brcc	.+2      	; 0x33ca <realloc+0x62>
    33c8:	97 c0       	rjmp	.+302    	; 0x34f8 <realloc+0x190>
    33ca:	42 50       	subi	r20, 0x02	; 2
    33cc:	50 40       	sbci	r21, 0x00	; 0
    33ce:	46 1b       	sub	r20, r22
    33d0:	57 0b       	sbc	r21, r23
    33d2:	f4 01       	movw	r30, r8
    33d4:	51 83       	std	Z+1, r21	; 0x01
    33d6:	40 83       	st	Z, r20
    33d8:	79 83       	std	Y+1, r23	; 0x01
    33da:	68 83       	st	Y, r22
    33dc:	c5 01       	movw	r24, r10
    33de:	0e 94 5c 19 	call	0x32b8	; 0x32b8 <free>
    33e2:	8a c0       	rjmp	.+276    	; 0x34f8 <realloc+0x190>
    33e4:	6b 01       	movw	r12, r22
    33e6:	c4 1a       	sub	r12, r20
    33e8:	d5 0a       	sbc	r13, r21
    33ea:	e0 91 95 06 	lds	r30, 0x0695
    33ee:	f0 91 96 06 	lds	r31, 0x0696
    33f2:	a0 e0       	ldi	r26, 0x00	; 0
    33f4:	b0 e0       	ldi	r27, 0x00	; 0
    33f6:	c0 e0       	ldi	r28, 0x00	; 0
    33f8:	d0 e0       	ldi	r29, 0x00	; 0
    33fa:	42 c0       	rjmp	.+132    	; 0x3480 <realloc+0x118>
    33fc:	e8 15       	cp	r30, r8
    33fe:	f9 05       	cpc	r31, r9
    3400:	a1 f5       	brne	.+104    	; 0x346a <realloc+0x102>
    3402:	20 81       	ld	r18, Z
    3404:	31 81       	ldd	r19, Z+1	; 0x01
    3406:	2c 15       	cp	r18, r12
    3408:	3d 05       	cpc	r19, r13
    340a:	78 f1       	brcs	.+94     	; 0x346a <realloc+0x102>
    340c:	c9 01       	movw	r24, r18
    340e:	02 96       	adiw	r24, 0x02	; 2
    3410:	8c 15       	cp	r24, r12
    3412:	9d 05       	cpc	r25, r13
    3414:	a8 f0       	brcs	.+42     	; 0x3440 <realloc+0xd8>
    3416:	4e 5f       	subi	r20, 0xFE	; 254
    3418:	5f 4f       	sbci	r21, 0xFF	; 255
    341a:	42 0f       	add	r20, r18
    341c:	53 1f       	adc	r21, r19
    341e:	e7 01       	movw	r28, r14
    3420:	59 83       	std	Y+1, r21	; 0x01
    3422:	48 83       	st	Y, r20
    3424:	22 81       	ldd	r18, Z+2	; 0x02
    3426:	33 81       	ldd	r19, Z+3	; 0x03
    3428:	10 97       	sbiw	r26, 0x00	; 0
    342a:	29 f0       	breq	.+10     	; 0x3436 <realloc+0xce>
    342c:	13 96       	adiw	r26, 0x03	; 3
    342e:	3c 93       	st	X, r19
    3430:	2e 93       	st	-X, r18
    3432:	12 97       	sbiw	r26, 0x02	; 2
    3434:	61 c0       	rjmp	.+194    	; 0x34f8 <realloc+0x190>
    3436:	30 93 96 06 	sts	0x0696, r19
    343a:	20 93 95 06 	sts	0x0695, r18
    343e:	5c c0       	rjmp	.+184    	; 0x34f8 <realloc+0x190>
    3440:	22 50       	subi	r18, 0x02	; 2
    3442:	30 40       	sbci	r19, 0x00	; 0
    3444:	2c 19       	sub	r18, r12
    3446:	3d 09       	sbc	r19, r13
    3448:	31 83       	std	Z+1, r19	; 0x01
    344a:	20 83       	st	Z, r18
    344c:	10 97       	sbiw	r26, 0x00	; 0
    344e:	29 f0       	breq	.+10     	; 0x345a <realloc+0xf2>
    3450:	13 96       	adiw	r26, 0x03	; 3
    3452:	fc 93       	st	X, r31
    3454:	ee 93       	st	-X, r30
    3456:	12 97       	sbiw	r26, 0x02	; 2
    3458:	04 c0       	rjmp	.+8      	; 0x3462 <realloc+0xfa>
    345a:	f0 93 96 06 	sts	0x0696, r31
    345e:	e0 93 95 06 	sts	0x0695, r30
    3462:	f7 01       	movw	r30, r14
    3464:	71 83       	std	Z+1, r23	; 0x01
    3466:	60 83       	st	Z, r22
    3468:	47 c0       	rjmp	.+142    	; 0x34f8 <realloc+0x190>
    346a:	80 81       	ld	r24, Z
    346c:	91 81       	ldd	r25, Z+1	; 0x01
    346e:	c8 17       	cp	r28, r24
    3470:	d9 07       	cpc	r29, r25
    3472:	08 f4       	brcc	.+2      	; 0x3476 <realloc+0x10e>
    3474:	ec 01       	movw	r28, r24
    3476:	df 01       	movw	r26, r30
    3478:	82 81       	ldd	r24, Z+2	; 0x02
    347a:	93 81       	ldd	r25, Z+3	; 0x03
    347c:	9c 01       	movw	r18, r24
    347e:	f9 01       	movw	r30, r18
    3480:	30 97       	sbiw	r30, 0x00	; 0
    3482:	09 f0       	breq	.+2      	; 0x3486 <realloc+0x11e>
    3484:	bb cf       	rjmp	.-138    	; 0x33fc <realloc+0x94>
    3486:	40 0f       	add	r20, r16
    3488:	51 1f       	adc	r21, r17
    348a:	80 91 93 06 	lds	r24, 0x0693
    348e:	90 91 94 06 	lds	r25, 0x0694
    3492:	84 17       	cp	r24, r20
    3494:	95 07       	cpc	r25, r21
    3496:	e9 f4       	brne	.+58     	; 0x34d2 <realloc+0x16a>
    3498:	c6 17       	cp	r28, r22
    349a:	d7 07       	cpc	r29, r23
    349c:	d0 f4       	brcc	.+52     	; 0x34d2 <realloc+0x16a>
    349e:	20 91 13 02 	lds	r18, 0x0213
    34a2:	30 91 14 02 	lds	r19, 0x0214
    34a6:	21 15       	cp	r18, r1
    34a8:	31 05       	cpc	r19, r1
    34aa:	41 f4       	brne	.+16     	; 0x34bc <realloc+0x154>
    34ac:	2d b7       	in	r18, 0x3d	; 61
    34ae:	3e b7       	in	r19, 0x3e	; 62
    34b0:	80 91 0f 02 	lds	r24, 0x020F
    34b4:	90 91 10 02 	lds	r25, 0x0210
    34b8:	28 1b       	sub	r18, r24
    34ba:	39 0b       	sbc	r19, r25
    34bc:	a2 16       	cp	r10, r18
    34be:	b3 06       	cpc	r11, r19
    34c0:	c8 f4       	brcc	.+50     	; 0x34f4 <realloc+0x18c>
    34c2:	b0 92 94 06 	sts	0x0694, r11
    34c6:	a0 92 93 06 	sts	0x0693, r10
    34ca:	e7 01       	movw	r28, r14
    34cc:	79 83       	std	Y+1, r23	; 0x01
    34ce:	68 83       	st	Y, r22
    34d0:	13 c0       	rjmp	.+38     	; 0x34f8 <realloc+0x190>
    34d2:	cb 01       	movw	r24, r22
    34d4:	0e 94 af 18 	call	0x315e	; 0x315e <malloc>
    34d8:	ec 01       	movw	r28, r24
    34da:	00 97       	sbiw	r24, 0x00	; 0
    34dc:	59 f0       	breq	.+22     	; 0x34f4 <realloc+0x18c>
    34de:	f7 01       	movw	r30, r14
    34e0:	40 81       	ld	r20, Z
    34e2:	51 81       	ldd	r21, Z+1	; 0x01
    34e4:	b8 01       	movw	r22, r16
    34e6:	0e 94 82 1a 	call	0x3504	; 0x3504 <memcpy>
    34ea:	c8 01       	movw	r24, r16
    34ec:	0e 94 5c 19 	call	0x32b8	; 0x32b8 <free>
    34f0:	8e 01       	movw	r16, r28
    34f2:	02 c0       	rjmp	.+4      	; 0x34f8 <realloc+0x190>
    34f4:	00 e0       	ldi	r16, 0x00	; 0
    34f6:	10 e0       	ldi	r17, 0x00	; 0
    34f8:	c8 01       	movw	r24, r16
    34fa:	cd b7       	in	r28, 0x3d	; 61
    34fc:	de b7       	in	r29, 0x3e	; 62
    34fe:	ec e0       	ldi	r30, 0x0C	; 12
    3500:	0c 94 4f 1b 	jmp	0x369e	; 0x369e <__epilogue_restores__+0xc>

00003504 <memcpy>:
    3504:	fb 01       	movw	r30, r22
    3506:	dc 01       	movw	r26, r24
    3508:	02 c0       	rjmp	.+4      	; 0x350e <memcpy+0xa>
    350a:	01 90       	ld	r0, Z+
    350c:	0d 92       	st	X+, r0
    350e:	41 50       	subi	r20, 0x01	; 1
    3510:	50 40       	sbci	r21, 0x00	; 0
    3512:	d8 f7       	brcc	.-10     	; 0x350a <memcpy+0x6>
    3514:	08 95       	ret

00003516 <memset>:
    3516:	dc 01       	movw	r26, r24
    3518:	01 c0       	rjmp	.+2      	; 0x351c <memset+0x6>
    351a:	6d 93       	st	X+, r22
    351c:	41 50       	subi	r20, 0x01	; 1
    351e:	50 40       	sbci	r21, 0x00	; 0
    3520:	e0 f7       	brcc	.-8      	; 0x351a <memset+0x4>
    3522:	08 95       	ret

00003524 <strstr>:
    3524:	fb 01       	movw	r30, r22
    3526:	51 91       	ld	r21, Z+
    3528:	55 23       	and	r21, r21
    352a:	a9 f0       	breq	.+42     	; 0x3556 <strstr+0x32>
    352c:	bf 01       	movw	r22, r30
    352e:	dc 01       	movw	r26, r24
    3530:	4d 91       	ld	r20, X+
    3532:	45 17       	cp	r20, r21
    3534:	41 11       	cpse	r20, r1
    3536:	e1 f7       	brne	.-8      	; 0x3530 <strstr+0xc>
    3538:	59 f4       	brne	.+22     	; 0x3550 <strstr+0x2c>
    353a:	cd 01       	movw	r24, r26
    353c:	01 90       	ld	r0, Z+
    353e:	00 20       	and	r0, r0
    3540:	49 f0       	breq	.+18     	; 0x3554 <strstr+0x30>
    3542:	4d 91       	ld	r20, X+
    3544:	40 15       	cp	r20, r0
    3546:	41 11       	cpse	r20, r1
    3548:	c9 f3       	breq	.-14     	; 0x353c <strstr+0x18>
    354a:	fb 01       	movw	r30, r22
    354c:	41 11       	cpse	r20, r1
    354e:	ef cf       	rjmp	.-34     	; 0x352e <strstr+0xa>
    3550:	81 e0       	ldi	r24, 0x01	; 1
    3552:	90 e0       	ldi	r25, 0x00	; 0
    3554:	01 97       	sbiw	r24, 0x01	; 1
    3556:	08 95       	ret

00003558 <itoa>:
    3558:	fb 01       	movw	r30, r22
    355a:	9f 01       	movw	r18, r30
    355c:	e8 94       	clt
    355e:	42 30       	cpi	r20, 0x02	; 2
    3560:	c4 f0       	brlt	.+48     	; 0x3592 <itoa+0x3a>
    3562:	45 32       	cpi	r20, 0x25	; 37
    3564:	b4 f4       	brge	.+44     	; 0x3592 <itoa+0x3a>
    3566:	4a 30       	cpi	r20, 0x0A	; 10
    3568:	29 f4       	brne	.+10     	; 0x3574 <itoa+0x1c>
    356a:	97 fb       	bst	r25, 7
    356c:	1e f4       	brtc	.+6      	; 0x3574 <itoa+0x1c>
    356e:	90 95       	com	r25
    3570:	81 95       	neg	r24
    3572:	9f 4f       	sbci	r25, 0xFF	; 255
    3574:	64 2f       	mov	r22, r20
    3576:	77 27       	eor	r23, r23
    3578:	0e 94 19 1b 	call	0x3632	; 0x3632 <__udivmodhi4>
    357c:	80 5d       	subi	r24, 0xD0	; 208
    357e:	8a 33       	cpi	r24, 0x3A	; 58
    3580:	0c f0       	brlt	.+2      	; 0x3584 <itoa+0x2c>
    3582:	89 5d       	subi	r24, 0xD9	; 217
    3584:	81 93       	st	Z+, r24
    3586:	cb 01       	movw	r24, r22
    3588:	00 97       	sbiw	r24, 0x00	; 0
    358a:	a1 f7       	brne	.-24     	; 0x3574 <itoa+0x1c>
    358c:	16 f4       	brtc	.+4      	; 0x3592 <itoa+0x3a>
    358e:	5d e2       	ldi	r21, 0x2D	; 45
    3590:	51 93       	st	Z+, r21
    3592:	10 82       	st	Z, r1
    3594:	c9 01       	movw	r24, r18
    3596:	0c 94 09 1b 	jmp	0x3612	; 0x3612 <strrev>

0000359a <ltoa>:
    359a:	fa 01       	movw	r30, r20
    359c:	cf 93       	push	r28
    359e:	ff 93       	push	r31
    35a0:	ef 93       	push	r30
    35a2:	22 30       	cpi	r18, 0x02	; 2
    35a4:	44 f1       	brlt	.+80     	; 0x35f6 <ltoa+0x5c>
    35a6:	25 32       	cpi	r18, 0x25	; 37
    35a8:	34 f5       	brge	.+76     	; 0x35f6 <ltoa+0x5c>
    35aa:	c2 2f       	mov	r28, r18
    35ac:	e8 94       	clt
    35ae:	ca 30       	cpi	r28, 0x0A	; 10
    35b0:	49 f4       	brne	.+18     	; 0x35c4 <ltoa+0x2a>
    35b2:	97 fb       	bst	r25, 7
    35b4:	3e f4       	brtc	.+14     	; 0x35c4 <ltoa+0x2a>
    35b6:	90 95       	com	r25
    35b8:	80 95       	com	r24
    35ba:	70 95       	com	r23
    35bc:	61 95       	neg	r22
    35be:	7f 4f       	sbci	r23, 0xFF	; 255
    35c0:	8f 4f       	sbci	r24, 0xFF	; 255
    35c2:	9f 4f       	sbci	r25, 0xFF	; 255
    35c4:	2c 2f       	mov	r18, r28
    35c6:	33 27       	eor	r19, r19
    35c8:	44 27       	eor	r20, r20
    35ca:	55 27       	eor	r21, r21
    35cc:	ff 93       	push	r31
    35ce:	ef 93       	push	r30
    35d0:	0e 94 71 18 	call	0x30e2	; 0x30e2 <__udivmodsi4>
    35d4:	ef 91       	pop	r30
    35d6:	ff 91       	pop	r31
    35d8:	60 5d       	subi	r22, 0xD0	; 208
    35da:	6a 33       	cpi	r22, 0x3A	; 58
    35dc:	0c f0       	brlt	.+2      	; 0x35e0 <ltoa+0x46>
    35de:	69 5d       	subi	r22, 0xD9	; 217
    35e0:	61 93       	st	Z+, r22
    35e2:	b9 01       	movw	r22, r18
    35e4:	ca 01       	movw	r24, r20
    35e6:	60 50       	subi	r22, 0x00	; 0
    35e8:	70 40       	sbci	r23, 0x00	; 0
    35ea:	80 40       	sbci	r24, 0x00	; 0
    35ec:	90 40       	sbci	r25, 0x00	; 0
    35ee:	51 f7       	brne	.-44     	; 0x35c4 <ltoa+0x2a>
    35f0:	16 f4       	brtc	.+4      	; 0x35f6 <ltoa+0x5c>
    35f2:	cd e2       	ldi	r28, 0x2D	; 45
    35f4:	c1 93       	st	Z+, r28
    35f6:	10 82       	st	Z, r1
    35f8:	8f 91       	pop	r24
    35fa:	9f 91       	pop	r25
    35fc:	cf 91       	pop	r28
    35fe:	0c 94 09 1b 	jmp	0x3612	; 0x3612 <strrev>

00003602 <__eerd_byte_m32>:
    3602:	e1 99       	sbic	0x1c, 1	; 28
    3604:	fe cf       	rjmp	.-4      	; 0x3602 <__eerd_byte_m32>
    3606:	9f bb       	out	0x1f, r25	; 31
    3608:	8e bb       	out	0x1e, r24	; 30
    360a:	e0 9a       	sbi	0x1c, 0	; 28
    360c:	99 27       	eor	r25, r25
    360e:	8d b3       	in	r24, 0x1d	; 29
    3610:	08 95       	ret

00003612 <strrev>:
    3612:	dc 01       	movw	r26, r24
    3614:	fc 01       	movw	r30, r24
    3616:	67 2f       	mov	r22, r23
    3618:	71 91       	ld	r23, Z+
    361a:	77 23       	and	r23, r23
    361c:	e1 f7       	brne	.-8      	; 0x3616 <strrev+0x4>
    361e:	32 97       	sbiw	r30, 0x02	; 2
    3620:	04 c0       	rjmp	.+8      	; 0x362a <strrev+0x18>
    3622:	7c 91       	ld	r23, X
    3624:	6d 93       	st	X+, r22
    3626:	70 83       	st	Z, r23
    3628:	62 91       	ld	r22, -Z
    362a:	ae 17       	cp	r26, r30
    362c:	bf 07       	cpc	r27, r31
    362e:	c8 f3       	brcs	.-14     	; 0x3622 <strrev+0x10>
    3630:	08 95       	ret

00003632 <__udivmodhi4>:
    3632:	aa 1b       	sub	r26, r26
    3634:	bb 1b       	sub	r27, r27
    3636:	51 e1       	ldi	r21, 0x11	; 17
    3638:	07 c0       	rjmp	.+14     	; 0x3648 <__udivmodhi4_ep>

0000363a <__udivmodhi4_loop>:
    363a:	aa 1f       	adc	r26, r26
    363c:	bb 1f       	adc	r27, r27
    363e:	a6 17       	cp	r26, r22
    3640:	b7 07       	cpc	r27, r23
    3642:	10 f0       	brcs	.+4      	; 0x3648 <__udivmodhi4_ep>
    3644:	a6 1b       	sub	r26, r22
    3646:	b7 0b       	sbc	r27, r23

00003648 <__udivmodhi4_ep>:
    3648:	88 1f       	adc	r24, r24
    364a:	99 1f       	adc	r25, r25
    364c:	5a 95       	dec	r21
    364e:	a9 f7       	brne	.-22     	; 0x363a <__udivmodhi4_loop>
    3650:	80 95       	com	r24
    3652:	90 95       	com	r25
    3654:	bc 01       	movw	r22, r24
    3656:	cd 01       	movw	r24, r26
    3658:	08 95       	ret

0000365a <__prologue_saves__>:
    365a:	2f 92       	push	r2
    365c:	3f 92       	push	r3
    365e:	4f 92       	push	r4
    3660:	5f 92       	push	r5
    3662:	6f 92       	push	r6
    3664:	7f 92       	push	r7
    3666:	8f 92       	push	r8
    3668:	9f 92       	push	r9
    366a:	af 92       	push	r10
    366c:	bf 92       	push	r11
    366e:	cf 92       	push	r12
    3670:	df 92       	push	r13
    3672:	ef 92       	push	r14
    3674:	ff 92       	push	r15
    3676:	0f 93       	push	r16
    3678:	1f 93       	push	r17
    367a:	cf 93       	push	r28
    367c:	df 93       	push	r29
    367e:	cd b7       	in	r28, 0x3d	; 61
    3680:	de b7       	in	r29, 0x3e	; 62
    3682:	ca 1b       	sub	r28, r26
    3684:	db 0b       	sbc	r29, r27
    3686:	0f b6       	in	r0, 0x3f	; 63
    3688:	f8 94       	cli
    368a:	de bf       	out	0x3e, r29	; 62
    368c:	0f be       	out	0x3f, r0	; 63
    368e:	cd bf       	out	0x3d, r28	; 61
    3690:	09 94       	ijmp

00003692 <__epilogue_restores__>:
    3692:	2a 88       	ldd	r2, Y+18	; 0x12
    3694:	39 88       	ldd	r3, Y+17	; 0x11
    3696:	48 88       	ldd	r4, Y+16	; 0x10
    3698:	5f 84       	ldd	r5, Y+15	; 0x0f
    369a:	6e 84       	ldd	r6, Y+14	; 0x0e
    369c:	7d 84       	ldd	r7, Y+13	; 0x0d
    369e:	8c 84       	ldd	r8, Y+12	; 0x0c
    36a0:	9b 84       	ldd	r9, Y+11	; 0x0b
    36a2:	aa 84       	ldd	r10, Y+10	; 0x0a
    36a4:	b9 84       	ldd	r11, Y+9	; 0x09
    36a6:	c8 84       	ldd	r12, Y+8	; 0x08
    36a8:	df 80       	ldd	r13, Y+7	; 0x07
    36aa:	ee 80       	ldd	r14, Y+6	; 0x06
    36ac:	fd 80       	ldd	r15, Y+5	; 0x05
    36ae:	0c 81       	ldd	r16, Y+4	; 0x04
    36b0:	1b 81       	ldd	r17, Y+3	; 0x03
    36b2:	aa 81       	ldd	r26, Y+2	; 0x02
    36b4:	b9 81       	ldd	r27, Y+1	; 0x01
    36b6:	ce 0f       	add	r28, r30
    36b8:	d1 1d       	adc	r29, r1
    36ba:	0f b6       	in	r0, 0x3f	; 63
    36bc:	f8 94       	cli
    36be:	de bf       	out	0x3e, r29	; 62
    36c0:	0f be       	out	0x3f, r0	; 63
    36c2:	cd bf       	out	0x3d, r28	; 61
    36c4:	ed 01       	movw	r28, r26
    36c6:	08 95       	ret

000036c8 <_exit>:
    36c8:	f8 94       	cli

000036ca <__stop_program>:
    36ca:	ff cf       	rjmp	.-2      	; 0x36ca <__stop_program>
